
Reloj_LED.elf:     file format elf32-avr

Sections:
Idx Name          Size      VMA       LMA       File off  Algn
  0 .text         000029f2  00000000  00000000  00000074  2**1
                  CONTENTS, ALLOC, LOAD, READONLY, CODE
  1 .data         00000000  00800060  00800060  00002a66  2**0
                  CONTENTS, ALLOC, LOAD, DATA
  2 .bss          00000081  00800060  00800060  00002a66  2**0
                  ALLOC
  3 .comment      00000030  00000000  00000000  00002a66  2**0
                  CONTENTS, READONLY
  4 .note.gnu.avr.deviceinfo 0000003c  00000000  00000000  00002a98  2**2
                  CONTENTS, READONLY
  5 .debug_aranges 00000268  00000000  00000000  00002ad4  2**0
                  CONTENTS, READONLY, DEBUGGING
  6 .debug_info   00003c7d  00000000  00000000  00002d3c  2**0
                  CONTENTS, READONLY, DEBUGGING
  7 .debug_abbrev 00000b7c  00000000  00000000  000069b9  2**0
                  CONTENTS, READONLY, DEBUGGING
  8 .debug_line   00002872  00000000  00000000  00007535  2**0
                  CONTENTS, READONLY, DEBUGGING
  9 .debug_frame  000004d8  00000000  00000000  00009da8  2**2
                  CONTENTS, READONLY, DEBUGGING
 10 .debug_str    00000933  00000000  00000000  0000a280  2**0
                  CONTENTS, READONLY, DEBUGGING
 11 .debug_loc    00000ade  00000000  00000000  0000abb3  2**0
                  CONTENTS, READONLY, DEBUGGING
 12 .debug_ranges 000001c8  00000000  00000000  0000b691  2**0
                  CONTENTS, READONLY, DEBUGGING

Disassembly of section .text:

00000000 <__vectors>:
       0:	0c 94 74 00 	jmp	0xe8	; 0xe8 <__ctors_end>
       4:	0c 94 86 00 	jmp	0x10c	; 0x10c <__bad_interrupt>
       8:	0c 94 86 00 	jmp	0x10c	; 0x10c <__bad_interrupt>
       c:	0c 94 86 00 	jmp	0x10c	; 0x10c <__bad_interrupt>
      10:	0c 94 d9 06 	jmp	0xdb2	; 0xdb2 <__vector_4>
      14:	0c 94 86 00 	jmp	0x10c	; 0x10c <__bad_interrupt>
      18:	0c 94 86 00 	jmp	0x10c	; 0x10c <__bad_interrupt>
      1c:	0c 94 86 00 	jmp	0x10c	; 0x10c <__bad_interrupt>
      20:	0c 94 86 00 	jmp	0x10c	; 0x10c <__bad_interrupt>
      24:	0c 94 86 00 	jmp	0x10c	; 0x10c <__bad_interrupt>
      28:	0c 94 5b 06 	jmp	0xcb6	; 0xcb6 <__vector_10>
      2c:	0c 94 86 00 	jmp	0x10c	; 0x10c <__bad_interrupt>
      30:	0c 94 86 00 	jmp	0x10c	; 0x10c <__bad_interrupt>
      34:	0c 94 86 00 	jmp	0x10c	; 0x10c <__bad_interrupt>
      38:	0c 94 86 00 	jmp	0x10c	; 0x10c <__bad_interrupt>
      3c:	0c 94 86 00 	jmp	0x10c	; 0x10c <__bad_interrupt>
      40:	0c 94 86 00 	jmp	0x10c	; 0x10c <__bad_interrupt>
      44:	0c 94 86 00 	jmp	0x10c	; 0x10c <__bad_interrupt>
      48:	0c 94 86 00 	jmp	0x10c	; 0x10c <__bad_interrupt>
      4c:	0c 94 86 00 	jmp	0x10c	; 0x10c <__bad_interrupt>
      50:	0c 94 86 00 	jmp	0x10c	; 0x10c <__bad_interrupt>
      54:	9b 03       	fmulsu	r17, r19
      56:	d1 03       	fmuls	r21, r17
      58:	07 04       	cpc	r0, r7
      5a:	3f 04       	cpc	r3, r15
      5c:	76 04       	cpc	r7, r6
      5e:	ac 04       	cpc	r10, r12
      60:	58 06       	cpc	r5, r24
      62:	e2 04       	cpc	r14, r2
      64:	17 05       	cpc	r17, r7
      66:	4c 05       	cpc	r20, r12
      68:	83 05       	cpc	r24, r3
      6a:	58 06       	cpc	r5, r24
      6c:	b1 05       	cpc	r27, r1
      6e:	eb 05       	cpc	r30, r11
      70:	da 0a       	sbc	r13, r26
      72:	e3 0a       	sbc	r14, r19
      74:	fe 0a       	sbc	r15, r30
      76:	19 0b       	sbc	r17, r25
      78:	34 0b       	sbc	r19, r20
      7a:	4f 0b       	sbc	r20, r31
      7c:	6a 0b       	sbc	r22, r26
      7e:	85 0b       	sbc	r24, r21
      80:	a0 0b       	sbc	r26, r16
      82:	ba 0b       	sbc	r27, r26
      84:	d4 0b       	sbc	r29, r20
      86:	ee 0b       	sbc	r30, r30
      88:	07 0c       	add	r0, r7
      8a:	69 0f       	add	r22, r25
      8c:	96 0f       	add	r25, r22
      8e:	a6 0f       	add	r26, r22
      90:	b6 0f       	add	r27, r22
      92:	c6 0f       	add	r28, r22
      94:	d6 0f       	add	r29, r22
      96:	e6 0f       	add	r30, r22
      98:	51 10       	cpse	r5, r1
      9a:	f6 0f       	add	r31, r22
      9c:	06 10       	cpse	r0, r6
      9e:	16 10       	cpse	r1, r6
      a0:	25 10       	cpse	r2, r5
      a2:	51 10       	cpse	r5, r1
      a4:	34 10       	cpse	r3, r4
      a6:	43 10       	cpse	r4, r3
      a8:	0f 12       	cpse	r0, r31
      aa:	1d 12       	cpse	r1, r29
      ac:	2b 12       	cpse	r2, r27
      ae:	39 12       	cpse	r3, r25
      b0:	47 12       	cpse	r4, r23
      b2:	55 12       	cpse	r5, r21
      b4:	63 12       	cpse	r6, r19
      b6:	71 12       	cpse	r7, r17
      b8:	7f 12       	cpse	r7, r31
      ba:	8d 12       	cpse	r8, r29
      bc:	9b 12       	cpse	r9, r27
      be:	a9 12       	cpse	r10, r25
      c0:	b7 12       	cpse	r11, r23
      c2:	c5 12       	cpse	r12, r21
      c4:	d3 12       	cpse	r13, r19
      c6:	e1 12       	cpse	r14, r17
      c8:	16 13       	cpse	r17, r22
      ca:	24 13       	cpse	r18, r20
      cc:	32 13       	cpse	r19, r18
      ce:	40 13       	cpse	r20, r16
      d0:	4e 13       	cpse	r20, r30
      d2:	5c 13       	cpse	r21, r28
      d4:	6a 13       	cpse	r22, r26
      d6:	78 13       	cpse	r23, r24
      d8:	86 13       	cpse	r24, r22
      da:	94 13       	cpse	r25, r20
      dc:	a2 13       	cpse	r26, r18
      de:	b0 13       	cpse	r27, r16
      e0:	be 13       	cpse	r27, r30
      e2:	cc 13       	cpse	r28, r28
      e4:	da 13       	cpse	r29, r26
      e6:	e8 13       	cpse	r30, r24

000000e8 <__ctors_end>:
      e8:	11 24       	eor	r1, r1
      ea:	1f be       	out	0x3f, r1	; 63
      ec:	cf e5       	ldi	r28, 0x5F	; 95
      ee:	d8 e0       	ldi	r29, 0x08	; 8
      f0:	de bf       	out	0x3e, r29	; 62
      f2:	cd bf       	out	0x3d, r28	; 61

000000f4 <__do_clear_bss>:
      f4:	20 e0       	ldi	r18, 0x00	; 0
      f6:	a0 e6       	ldi	r26, 0x60	; 96
      f8:	b0 e0       	ldi	r27, 0x00	; 0
      fa:	01 c0       	rjmp	.+2      	; 0xfe <.do_clear_bss_start>

000000fc <.do_clear_bss_loop>:
      fc:	1d 92       	st	X+, r1

000000fe <.do_clear_bss_start>:
      fe:	a1 3e       	cpi	r26, 0xE1	; 225
     100:	b2 07       	cpc	r27, r18
     102:	e1 f7       	brne	.-8      	; 0xfc <.do_clear_bss_loop>
     104:	0e 94 d2 10 	call	0x21a4	; 0x21a4 <main>
     108:	0c 94 f7 14 	jmp	0x29ee	; 0x29ee <_exit>

0000010c <__bad_interrupt>:
     10c:	0c 94 00 00 	jmp	0	; 0x0 <__vectors>

00000110 <EEWrite2Bytes>:
//#include "rtc_ds1307.h"
#include "interrupts.h"
#include "delay.h"

void EEWrite2Bytes(uint16_t address,uint8_t data1, uint8_t data2)
{
     110:	0f 93       	push	r16
     112:	1f 93       	push	r17
     114:	cf 93       	push	r28
     116:	df 93       	push	r29
     118:	08 2f       	mov	r16, r24
     11a:	c9 2f       	mov	r28, r25
     11c:	16 2f       	mov	r17, r22
     11e:	d4 2f       	mov	r29, r20
	//uint8_t check;
	I2C_Start();
     120:	0e 94 cb 0e 	call	0x1d96	; 0x1d96 <I2C_Start>
	I2C_Write(0xA0);//direccion EEprom A0	
     124:	80 ea       	ldi	r24, 0xA0	; 160
     126:	90 e0       	ldi	r25, 0x00	; 0
     128:	0e 94 d4 0e 	call	0x1da8	; 0x1da8 <I2C_Write>
	I2C_Write(address>>8);        // escribimos bit alto de la direccion que queremos leer	
     12c:	8c 2f       	mov	r24, r28
     12e:	90 e0       	ldi	r25, 0x00	; 0
     130:	0e 94 d4 0e 	call	0x1da8	; 0x1da8 <I2C_Write>
	I2C_Write(address);           //""""""""""""""""bajo"""""""""""""""""""""""""""""""""	
     134:	80 2f       	mov	r24, r16
     136:	9c 2f       	mov	r25, r28
     138:	0e 94 d4 0e 	call	0x1da8	; 0x1da8 <I2C_Write>
  //  I2C_Write(data1);
	I2C_Write(data1);
     13c:	81 2f       	mov	r24, r17
     13e:	90 e0       	ldi	r25, 0x00	; 0
     140:	0e 94 d4 0e 	call	0x1da8	; 0x1da8 <I2C_Write>
	I2C_Write(data2);	
     144:	8d 2f       	mov	r24, r29
     146:	90 e0       	ldi	r25, 0x00	; 0
     148:	0e 94 d4 0e 	call	0x1da8	; 0x1da8 <I2C_Write>
	I2C_Stop();
     14c:	0e 94 a4 0e 	call	0x1d48	; 0x1d48 <I2C_Stop>
	                     //libera i2c
	
	

}
     150:	df 91       	pop	r29
     152:	cf 91       	pop	r28
     154:	1f 91       	pop	r17
     156:	0f 91       	pop	r16
     158:	08 95       	ret

0000015a <EEWriteByte>:

void EEWriteByte(uint16_t address,uint8_t data)
{
     15a:	1f 93       	push	r17
     15c:	cf 93       	push	r28
     15e:	df 93       	push	r29
     160:	18 2f       	mov	r17, r24
     162:	c9 2f       	mov	r28, r25
     164:	d6 2f       	mov	r29, r22
	//uint8_t check;
	I2C_Start();
     166:	0e 94 cb 0e 	call	0x1d96	; 0x1d96 <I2C_Start>
	I2C_Write(0xA0);//direccion EEprom A0
     16a:	80 ea       	ldi	r24, 0xA0	; 160
     16c:	90 e0       	ldi	r25, 0x00	; 0
     16e:	0e 94 d4 0e 	call	0x1da8	; 0x1da8 <I2C_Write>
	I2C_Write(address>>8);        // escribimos bit alto de la direccion que queremos leer
     172:	8c 2f       	mov	r24, r28
     174:	90 e0       	ldi	r25, 0x00	; 0
     176:	0e 94 d4 0e 	call	0x1da8	; 0x1da8 <I2C_Write>
	I2C_Write(address);           //""""""""""""""""bajo"""""""""""""""""""""""""""""""""
     17a:	81 2f       	mov	r24, r17
     17c:	9c 2f       	mov	r25, r28
     17e:	0e 94 d4 0e 	call	0x1da8	; 0x1da8 <I2C_Write>
	I2C_Write(data);
     182:	8d 2f       	mov	r24, r29
     184:	90 e0       	ldi	r25, 0x00	; 0
     186:	0e 94 d4 0e 	call	0x1da8	; 0x1da8 <I2C_Write>
	
	I2C_Stop();
     18a:	0e 94 a4 0e 	call	0x1d48	; 0x1d48 <I2C_Stop>
	//libera i2c
	
	

}
     18e:	df 91       	pop	r29
     190:	cf 91       	pop	r28
     192:	1f 91       	pop	r17
     194:	08 95       	ret

00000196 <EEReadByte>:

uint8_t EEReadByte(uint16_t addds)
{
     196:	cf 93       	push	r28
     198:	df 93       	push	r29
     19a:	d8 2f       	mov	r29, r24
     19c:	c9 2f       	mov	r28, r25
	unsigned char ret;
	uint16_t check;
	
	I2C_Start(); //avisa al bus	
     19e:	0e 94 cb 0e 	call	0x1d96	; 0x1d96 <I2C_Start>
	I2C_Write(0xA0);// dirije al chip
     1a2:	80 ea       	ldi	r24, 0xA0	; 160
     1a4:	90 e0       	ldi	r25, 0x00	; 0
     1a6:	0e 94 d4 0e 	call	0x1da8	; 0x1da8 <I2C_Write>
    check = addds >>8; //escribe byte alto 
	I2C_Write(check);	
     1aa:	8c 2f       	mov	r24, r28
     1ac:	90 e0       	ldi	r25, 0x00	; 0
     1ae:	0e 94 d4 0e 	call	0x1da8	; 0x1da8 <I2C_Write>
	I2C_Write(addds);// escribe byte bajo	
     1b2:	8d 2f       	mov	r24, r29
     1b4:	9c 2f       	mov	r25, r28
     1b6:	0e 94 d4 0e 	call	0x1da8	; 0x1da8 <I2C_Write>
	I2C_Start(); // condicion de inicio de protocolo para comensar lectura	
     1ba:	0e 94 cb 0e 	call	0x1d96	; 0x1d96 <I2C_Start>
	I2C_Write_RD(0b10100001); // codigo de lectura de protocolo	
     1be:	81 ea       	ldi	r24, 0xA1	; 161
     1c0:	0e 94 ae 0e 	call	0x1d5c	; 0x1d5c <I2C_Write_RD>
	ret = I2C_Read(0);// lectura
     1c4:	80 e0       	ldi	r24, 0x00	; 0
     1c6:	0e 94 b5 0e 	call	0x1d6a	; 0x1d6a <I2C_Read>
     1ca:	c8 2f       	mov	r28, r24
	
	I2C_Stop();                     //libera i2c
     1cc:	0e 94 a4 0e 	call	0x1d48	; 0x1d48 <I2C_Stop>
	return ret;	
}
     1d0:	8c 2f       	mov	r24, r28
     1d2:	df 91       	pop	r29
     1d4:	cf 91       	pop	r28
     1d6:	08 95       	ret

000001d8 <Lee_Botones>:
#include "atc24.h"
#include "WT588D.h"
#include "delay.h"

void Lee_Botones(void)
{	
     1d8:	0f 93       	push	r16
     1da:	1f 93       	push	r17
     1dc:	cf 93       	push	r28
     1de:	df 93       	push	r29
unsigned char tmp_2;

////**************************************************////
////Boton Arriba Hora/Fcha****************************////
tmp_2=PORT_IN_BTNS;
     1e0:	90 b3       	in	r25, 0x10	; 16
tmp_2 &= BTN_UP_D;


if(ESTADO.ON_OFF==TRUE)
     1e2:	80 91 c7 00 	lds	r24, 0x00C7	; 0x8000c7 <ESTADO>
     1e6:	81 30       	cpi	r24, 0x01	; 1
     1e8:	09 f0       	breq	.+2      	; 0x1ec <Lee_Botones+0x14>
     1ea:	5f c2       	rjmp	.+1214   	; 0x6aa <__FUSE_REGION_LENGTH__+0x2aa>
{	

 if((BOUTONS_PILOTES.boton_num[BTN_ARRIBA_CONFIG]& BTN_UP_D) != tmp_2)
     1ec:	80 91 b3 00 	lds	r24, 0x00B3	; 0x8000b3 <BOUTONS_PILOTES>
     1f0:	81 70       	andi	r24, 0x01	; 1
     1f2:	91 70       	andi	r25, 0x01	; 1
     1f4:	89 17       	cp	r24, r25
     1f6:	09 f4       	brne	.+2      	; 0x1fa <Lee_Botones+0x22>
     1f8:	57 c0       	rjmp	.+174    	; 0x2a8 <Lee_Botones+0xd0>
  {
	if(MODE_DEPLOYE.selectionner_mode!=NO_PRG)
     1fa:	80 91 b0 00 	lds	r24, 0x00B0	; 0x8000b0 <MODE_DEPLOYE>
     1fe:	88 23       	and	r24, r24
     200:	51 f0       	breq	.+20     	; 0x216 <Lee_Botones+0x3e>
	{		
	
	BOUTONS_PILOTES.boton_top_hd=TRUE;	
     202:	91 e0       	ldi	r25, 0x01	; 1
     204:	90 93 bb 00 	sts	0x00BB, r25	; 0x8000bb <BOUTONS_PILOTES+0x8>
	if(MODE_DEPLOYE.selectionner_mode!=PRG_ALRM_ON_OFF)
     208:	8b 30       	cpi	r24, 0x0B	; 11
     20a:	09 f4       	brne	.+2      	; 0x20e <Lee_Botones+0x36>
     20c:	4a c0       	rjmp	.+148    	; 0x2a2 <Lee_Botones+0xca>
	on_audio(SOUND_MOVE_SETTINGS);
     20e:	84 e0       	ldi	r24, 0x04	; 4
     210:	0e 94 66 14 	call	0x28cc	; 0x28cc <on_audio>
     214:	46 c0       	rjmp	.+140    	; 0x2a2 <Lee_Botones+0xca>
	
	}
	
	else// si esta en modo no prog, sube el brillo
	{
		 switch (BOUTONS_PILOTES.briller_change)
     216:	80 91 bf 00 	lds	r24, 0x00BF	; 0x8000bf <BOUTONS_PILOTES+0xc>
     21a:	90 91 c0 00 	lds	r25, 0x00C0	; 0x8000c0 <BOUTONS_PILOTES+0xd>
     21e:	85 35       	cpi	r24, 0x55	; 85
     220:	21 e0       	ldi	r18, 0x01	; 1
     222:	92 07       	cpc	r25, r18
     224:	c1 f0       	breq	.+48     	; 0x256 <Lee_Botones+0x7e>
     226:	18 f4       	brcc	.+6      	; 0x22e <Lee_Botones+0x56>
     228:	cc 97       	sbiw	r24, 0x3c	; 60
     22a:	49 f0       	breq	.+18     	; 0x23e <Lee_Botones+0x66>
     22c:	37 c0       	rjmp	.+110    	; 0x29c <Lee_Botones+0xc4>
     22e:	8a 3a       	cpi	r24, 0xAA	; 170
     230:	f2 e0       	ldi	r31, 0x02	; 2
     232:	9f 07       	cpc	r25, r31
     234:	e1 f0       	breq	.+56     	; 0x26e <Lee_Botones+0x96>
     236:	8f 3f       	cpi	r24, 0xFF	; 255
     238:	93 40       	sbci	r25, 0x03	; 3
     23a:	29 f1       	breq	.+74     	; 0x286 <Lee_Botones+0xae>
     23c:	2f c0       	rjmp	.+94     	; 0x29c <Lee_Botones+0xc4>
		 {
			 case BRILLO1:
			 BOUTONS_PILOTES.briller_change=BRILLO2;
     23e:	85 e5       	ldi	r24, 0x55	; 85
     240:	91 e0       	ldi	r25, 0x01	; 1
     242:	90 93 c0 00 	sts	0x00C0, r25	; 0x8000c0 <BOUTONS_PILOTES+0xd>
     246:	80 93 bf 00 	sts	0x00BF, r24	; 0x8000bf <BOUTONS_PILOTES+0xc>
			 EEWriteByte(SAVE_BRG,2);
     24a:	62 e0       	ldi	r22, 0x02	; 2
     24c:	80 e0       	ldi	r24, 0x00	; 0
     24e:	90 e0       	ldi	r25, 0x00	; 0
     250:	0e 94 ad 00 	call	0x15a	; 0x15a <EEWriteByte>
			 break;
     254:	23 c0       	rjmp	.+70     	; 0x29c <Lee_Botones+0xc4>
			 case BRILLO2:
			 BOUTONS_PILOTES.briller_change=BRILLO3;
     256:	8a ea       	ldi	r24, 0xAA	; 170
     258:	92 e0       	ldi	r25, 0x02	; 2
     25a:	90 93 c0 00 	sts	0x00C0, r25	; 0x8000c0 <BOUTONS_PILOTES+0xd>
     25e:	80 93 bf 00 	sts	0x00BF, r24	; 0x8000bf <BOUTONS_PILOTES+0xc>
			 EEWriteByte(SAVE_BRG,3);
     262:	63 e0       	ldi	r22, 0x03	; 3
     264:	80 e0       	ldi	r24, 0x00	; 0
     266:	90 e0       	ldi	r25, 0x00	; 0
     268:	0e 94 ad 00 	call	0x15a	; 0x15a <EEWriteByte>
			 break;
     26c:	17 c0       	rjmp	.+46     	; 0x29c <Lee_Botones+0xc4>
			 case BRILLO3:
			 BOUTONS_PILOTES.briller_change=BRILLO4;
     26e:	8f ef       	ldi	r24, 0xFF	; 255
     270:	93 e0       	ldi	r25, 0x03	; 3
     272:	90 93 c0 00 	sts	0x00C0, r25	; 0x8000c0 <BOUTONS_PILOTES+0xd>
     276:	80 93 bf 00 	sts	0x00BF, r24	; 0x8000bf <BOUTONS_PILOTES+0xc>
			 EEWriteByte(SAVE_BRG,4);
     27a:	64 e0       	ldi	r22, 0x04	; 4
     27c:	80 e0       	ldi	r24, 0x00	; 0
     27e:	90 e0       	ldi	r25, 0x00	; 0
     280:	0e 94 ad 00 	call	0x15a	; 0x15a <EEWriteByte>
			 break;
     284:	0b c0       	rjmp	.+22     	; 0x29c <Lee_Botones+0xc4>
			 case BRILLO4:
			 BOUTONS_PILOTES.briller_change=BRILLO1;
     286:	8c e3       	ldi	r24, 0x3C	; 60
     288:	90 e0       	ldi	r25, 0x00	; 0
     28a:	90 93 c0 00 	sts	0x00C0, r25	; 0x8000c0 <BOUTONS_PILOTES+0xd>
     28e:	80 93 bf 00 	sts	0x00BF, r24	; 0x8000bf <BOUTONS_PILOTES+0xc>
			 EEWriteByte(SAVE_BRG,1);
     292:	61 e0       	ldi	r22, 0x01	; 1
     294:	80 e0       	ldi	r24, 0x00	; 0
     296:	90 e0       	ldi	r25, 0x00	; 0
     298:	0e 94 ad 00 	call	0x15a	; 0x15a <EEWriteByte>
			 break;
		 }
		 on_audio(SOUND_BRILLO);
     29c:	88 e0       	ldi	r24, 0x08	; 8
     29e:	0e 94 66 14 	call	0x28cc	; 0x28cc <on_audio>
	}
	
	BOUTONS_PILOTES.boton_num[BTN_ARRIBA_CONFIG]=PORT_IN_BTNS;
     2a2:	80 b3       	in	r24, 0x10	; 16
     2a4:	80 93 b3 00 	sts	0x00B3, r24	; 0x8000b3 <BOUTONS_PILOTES>
}


//***********************************************//
//Boton abajo hora*******************************//
tmp_2=PORT_IN_BTNS;
     2a8:	80 b3       	in	r24, 0x10	; 16
tmp_2 &= BTN_DWN_D;

if((BOUTONS_PILOTES.boton_num[BTN_ABAJO_CONFIG]& BTN_DWN_D)!=tmp_2)
     2aa:	90 91 b4 00 	lds	r25, 0x00B4	; 0x8000b4 <BOUTONS_PILOTES+0x1>
     2ae:	92 70       	andi	r25, 0x02	; 2
     2b0:	82 70       	andi	r24, 0x02	; 2
     2b2:	98 17       	cp	r25, r24
     2b4:	79 f0       	breq	.+30     	; 0x2d4 <Lee_Botones+0xfc>
{
	
	
	
   if(MODE_DEPLOYE.selectionner_mode != NO_PRG)
     2b6:	80 91 b0 00 	lds	r24, 0x00B0	; 0x8000b0 <MODE_DEPLOYE>
     2ba:	88 23       	and	r24, r24
     2bc:	41 f0       	breq	.+16     	; 0x2ce <Lee_Botones+0xf6>
   {
	   	   
	BOUTONS_PILOTES.boton_dessous_hd=TRUE;   
     2be:	91 e0       	ldi	r25, 0x01	; 1
     2c0:	90 93 bc 00 	sts	0x00BC, r25	; 0x8000bc <BOUTONS_PILOTES+0x9>
	if(MODE_DEPLOYE.selectionner_mode!=PRG_ALRM_ON_OFF)
     2c4:	8b 30       	cpi	r24, 0x0B	; 11
     2c6:	19 f0       	breq	.+6      	; 0x2ce <Lee_Botones+0xf6>
	on_audio(SOUND_MOVE_SETTINGS);
     2c8:	84 e0       	ldi	r24, 0x04	; 4
     2ca:	0e 94 66 14 	call	0x28cc	; 0x28cc <on_audio>
	   
   }	
  
 
   BOUTONS_PILOTES.boton_num[BTN_ABAJO_CONFIG]=PORT_IN_BTNS;
     2ce:	80 b3       	in	r24, 0x10	; 16
     2d0:	80 93 b4 00 	sts	0x00B4, r24	; 0x8000b4 <BOUTONS_PILOTES+0x1>
   
}
/*****************************************************/////
//*****************Boton Config Hora-Fecha*************//////

tmp_2=PORT_IN_BTNS;
     2d4:	80 b3       	in	r24, 0x10	; 16
tmp_2 &= BTN_PRG;


if((BOUTONS_PILOTES.boton_num[BTN_CONFIG_CLOCK] &  BTN_PRG)!=tmp_2)//si boton guardado es diferente al leido del puerto
     2d6:	90 91 b5 00 	lds	r25, 0x00B5	; 0x8000b5 <BOUTONS_PILOTES+0x2>
     2da:	94 70       	andi	r25, 0x04	; 4
     2dc:	84 70       	andi	r24, 0x04	; 4
     2de:	98 17       	cp	r25, r24
     2e0:	09 f4       	brne	.+2      	; 0x2e4 <Lee_Botones+0x10c>
     2e2:	b0 c0       	rjmp	.+352    	; 0x444 <__FUSE_REGION_LENGTH__+0x44>
{
	if(MODE_DEPLOYE.selectionner_mode<PRG_ALRM_SEG)
     2e4:	80 91 b0 00 	lds	r24, 0x00B0	; 0x8000b0 <MODE_DEPLOYE>
     2e8:	88 30       	cpi	r24, 0x08	; 8
     2ea:	18 f4       	brcc	.+6      	; 0x2f2 <Lee_Botones+0x11a>
	MODE_DEPLOYE.selectionner_mode++;
     2ec:	8f 5f       	subi	r24, 0xFF	; 255
     2ee:	80 93 b0 00 	sts	0x00B0, r24	; 0x8000b0 <MODE_DEPLOYE>
/************** Salva Hora despues de que se colocan las horas****************//////

	if(MODE_DEPLOYE.selectionner_mode== PRG_MTH)// Programa Hora en RTC
     2f2:	80 91 b0 00 	lds	r24, 0x00B0	; 0x8000b0 <MODE_DEPLOYE>
     2f6:	84 30       	cpi	r24, 0x04	; 4
     2f8:	89 f4       	brne	.+34     	; 0x31c <Lee_Botones+0x144>
	{
		DS1307_settime(DecimalToBCD(Maneja_tiempo.hour_prog),DecimalToBCD(Maneja_tiempo.min_prog),DecimalToBCD(Maneja_tiempo.sec_prog));
     2fa:	c1 ec       	ldi	r28, 0xC1	; 193
     2fc:	d0 e0       	ldi	r29, 0x00	; 0
     2fe:	88 81       	ld	r24, Y
     300:	0e 94 3a 07 	call	0xe74	; 0xe74 <DecimalToBCD>
     304:	08 2f       	mov	r16, r24
     306:	89 81       	ldd	r24, Y+1	; 0x01
     308:	0e 94 3a 07 	call	0xe74	; 0xe74 <DecimalToBCD>
     30c:	18 2f       	mov	r17, r24
     30e:	8a 81       	ldd	r24, Y+2	; 0x02
     310:	0e 94 3a 07 	call	0xe74	; 0xe74 <DecimalToBCD>
     314:	40 2f       	mov	r20, r16
     316:	61 2f       	mov	r22, r17
     318:	0e 94 19 14 	call	0x2832	; 0x2832 <DS1307_settime>
	}
/**************************************************************************************///

/***************Salva Fecha despues de colocar año*********************//////////

if(MODE_DEPLOYE.selectionner_mode==PRG_Ovrrd)
     31c:	80 91 b0 00 	lds	r24, 0x00B0	; 0x8000b0 <MODE_DEPLOYE>
     320:	87 30       	cpi	r24, 0x07	; 7
     322:	b9 f4       	brne	.+46     	; 0x352 <Lee_Botones+0x17a>
{
	DS1307_setdate(DecimalToBCD(Maneja_tiempo.date_prog),DecimalToBCD(Maneja_tiempo.month_prog),DecimalToBCD(Maneja_tiempo.year_prog));	
     324:	c1 ec       	ldi	r28, 0xC1	; 193
     326:	d0 e0       	ldi	r29, 0x00	; 0
     328:	8d 81       	ldd	r24, Y+5	; 0x05
     32a:	0e 94 3a 07 	call	0xe74	; 0xe74 <DecimalToBCD>
     32e:	08 2f       	mov	r16, r24
     330:	8b 81       	ldd	r24, Y+3	; 0x03
     332:	0e 94 3a 07 	call	0xe74	; 0xe74 <DecimalToBCD>
     336:	18 2f       	mov	r17, r24
     338:	8c 81       	ldd	r24, Y+4	; 0x04
     33a:	0e 94 3a 07 	call	0xe74	; 0xe74 <DecimalToBCD>
     33e:	40 2f       	mov	r20, r16
     340:	61 2f       	mov	r22, r17
     342:	0e 94 3b 14 	call	0x2876	; 0x2876 <DS1307_setdate>
}

	
/*********Regresa a Mostrar Hora-(fecha) despues de programar****************/////	
	if(MODE_DEPLOYE.selectionner_mode==PRG_Ovrrd)
     346:	80 91 b0 00 	lds	r24, 0x00B0	; 0x8000b0 <MODE_DEPLOYE>
     34a:	87 30       	cpi	r24, 0x07	; 7
     34c:	11 f4       	brne	.+4      	; 0x352 <Lee_Botones+0x17a>
	MODE_DEPLOYE.selectionner_mode=NO_PRG;
     34e:	10 92 b0 00 	sts	0x00B0, r1	; 0x8000b0 <MODE_DEPLOYE>
	
	BOUTONS_PILOTES.boton_num[BTN_CONFIG_CLOCK]=PORT_IN_BTNS;	//actualiza estado de boton "config date"
     352:	80 b3       	in	r24, 0x10	; 16
     354:	80 93 b5 00 	sts	0x00B5, r24	; 0x8000b5 <BOUTONS_PILOTES+0x2>
/*	if(MODE_DEPLOYE.selectionner_mode==NO_PRG)
	{
		
	}*/
	//*****************************Programar Segundos********************************///
	if(MODE_DEPLOYE.selectionner_mode==PRG_SEG)
     358:	80 91 b0 00 	lds	r24, 0x00B0	; 0x8000b0 <MODE_DEPLOYE>
     35c:	81 30       	cpi	r24, 0x01	; 1
     35e:	81 f4       	brne	.+32     	; 0x380 <Lee_Botones+0x1a8>
	{
	
	Maneja_tiempo.sec_prog  = PILOTE_HORLOGE.sec;
     360:	e1 e6       	ldi	r30, 0x61	; 97
     362:	f0 e0       	ldi	r31, 0x00	; 0
     364:	90 81       	ld	r25, Z
     366:	a1 ec       	ldi	r26, 0xC1	; 193
     368:	b0 e0       	ldi	r27, 0x00	; 0
     36a:	9c 93       	st	X, r25
	Maneja_tiempo.min_prog  = PILOTE_HORLOGE.min;
     36c:	21 81       	ldd	r18, Z+1	; 0x01
     36e:	11 96       	adiw	r26, 0x01	; 1
     370:	2c 93       	st	X, r18
     372:	11 97       	sbiw	r26, 0x01	; 1
	Maneja_tiempo.hour_prog = PILOTE_HORLOGE.hour;
     374:	22 81       	ldd	r18, Z+2	; 0x02
     376:	12 96       	adiw	r26, 0x02	; 2
     378:	2c 93       	st	X, r18
	
	PILOTE_HORLOGE.past_sec = Maneja_tiempo.sec_prog+1;
     37a:	9f 5f       	subi	r25, 0xFF	; 255
     37c:	91 87       	std	Z+9, r25	; 0x09
     37e:	20 c0       	rjmp	.+64     	; 0x3c0 <Lee_Botones+0x1e8>
	
	
	}
	
	//*****************************Programar Minutos******************************/////
	if(MODE_DEPLOYE.selectionner_mode==PRG_MIN)
     380:	82 30       	cpi	r24, 0x02	; 2
     382:	71 f4       	brne	.+28     	; 0x3a0 <Lee_Botones+0x1c8>
	{

	PILOTE_HORLOGE.past_min = Maneja_tiempo.min_prog+1;	
     384:	a1 ec       	ldi	r26, 0xC1	; 193
     386:	b0 e0       	ldi	r27, 0x00	; 0
     388:	11 96       	adiw	r26, 0x01	; 1
     38a:	9c 91       	ld	r25, X
     38c:	11 97       	sbiw	r26, 0x01	; 1
     38e:	e1 e6       	ldi	r30, 0x61	; 97
     390:	f0 e0       	ldi	r31, 0x00	; 0
     392:	21 e0       	ldi	r18, 0x01	; 1
     394:	29 0f       	add	r18, r25
     396:	22 87       	std	Z+10, r18	; 0x0a
	
	PILOTE_HORLOGE.min=Maneja_tiempo.min_prog;
     398:	91 83       	std	Z+1, r25	; 0x01
	PILOTE_HORLOGE.sec=Maneja_tiempo.sec_prog;
     39a:	9c 91       	ld	r25, X
     39c:	90 83       	st	Z, r25
     39e:	24 c0       	rjmp	.+72     	; 0x3e8 <Lee_Botones+0x210>
	
	}
	
	//*****************************Programar Horas***********************************////
	if(MODE_DEPLOYE.selectionner_mode==PRG_HR)
     3a0:	83 30       	cpi	r24, 0x03	; 3
     3a2:	71 f4       	brne	.+28     	; 0x3c0 <Lee_Botones+0x1e8>
	{
	
	PILOTE_HORLOGE.hour=Maneja_tiempo.hour_prog;
     3a4:	a1 ec       	ldi	r26, 0xC1	; 193
     3a6:	b0 e0       	ldi	r27, 0x00	; 0
     3a8:	12 96       	adiw	r26, 0x02	; 2
     3aa:	9c 91       	ld	r25, X
     3ac:	12 97       	sbiw	r26, 0x02	; 2
     3ae:	e1 e6       	ldi	r30, 0x61	; 97
     3b0:	f0 e0       	ldi	r31, 0x00	; 0
     3b2:	92 83       	std	Z+2, r25	; 0x02
	PILOTE_HORLOGE.min=Maneja_tiempo.min_prog;
     3b4:	11 96       	adiw	r26, 0x01	; 1
     3b6:	2c 91       	ld	r18, X
     3b8:	21 83       	std	Z+1, r18	; 0x01
	PILOTE_HORLOGE.past_hour = Maneja_tiempo.hour_prog+1;
     3ba:	9f 5f       	subi	r25, 0xFF	; 255
     3bc:	93 87       	std	Z+11, r25	; 0x0b
     3be:	25 c0       	rjmp	.+74     	; 0x40a <__FUSE_REGION_LENGTH__+0xa>
	}
	//****************************Pogramar Mes************************************//////

	if(MODE_DEPLOYE.selectionner_mode==PRG_MTH)
     3c0:	84 30       	cpi	r24, 0x04	; 4
     3c2:	91 f4       	brne	.+36     	; 0x3e8 <Lee_Botones+0x210>
	{
	
		Maneja_tiempo.month_prog = PILOTE_HORLOGE.month;
     3c4:	e1 e6       	ldi	r30, 0x61	; 97
     3c6:	f0 e0       	ldi	r31, 0x00	; 0
     3c8:	94 81       	ldd	r25, Z+4	; 0x04
     3ca:	a1 ec       	ldi	r26, 0xC1	; 193
     3cc:	b0 e0       	ldi	r27, 0x00	; 0
     3ce:	13 96       	adiw	r26, 0x03	; 3
     3d0:	9c 93       	st	X, r25
     3d2:	13 97       	sbiw	r26, 0x03	; 3
	
		Maneja_tiempo.date_prog = PILOTE_HORLOGE.date;
     3d4:	23 81       	ldd	r18, Z+3	; 0x03
     3d6:	14 96       	adiw	r26, 0x04	; 4
     3d8:	2c 93       	st	X, r18
     3da:	14 97       	sbiw	r26, 0x04	; 4
		
		Maneja_tiempo.year_prog = PILOTE_HORLOGE.year;
     3dc:	25 81       	ldd	r18, Z+5	; 0x05
     3de:	15 96       	adiw	r26, 0x05	; 5
     3e0:	2c 93       	st	X, r18
		
		PILOTE_HORLOGE.past_month = Maneja_tiempo.month_prog+1;
     3e2:	9f 5f       	subi	r25, 0xFF	; 255
     3e4:	94 87       	std	Z+12, r25	; 0x0c
     3e6:	20 c0       	rjmp	.+64     	; 0x428 <__FUSE_REGION_LENGTH__+0x28>
		
	}
	
	if(MODE_DEPLOYE.selectionner_mode== PRG_DAY)
     3e8:	85 30       	cpi	r24, 0x05	; 5
     3ea:	79 f4       	brne	.+30     	; 0x40a <__FUSE_REGION_LENGTH__+0xa>
	{
		
			PILOTE_HORLOGE.past_date = Maneja_tiempo.date_prog+1;
     3ec:	a1 ec       	ldi	r26, 0xC1	; 193
     3ee:	b0 e0       	ldi	r27, 0x00	; 0
     3f0:	14 96       	adiw	r26, 0x04	; 4
     3f2:	8c 91       	ld	r24, X
     3f4:	14 97       	sbiw	r26, 0x04	; 4
     3f6:	e1 e6       	ldi	r30, 0x61	; 97
     3f8:	f0 e0       	ldi	r31, 0x00	; 0
     3fa:	91 e0       	ldi	r25, 0x01	; 1
     3fc:	98 0f       	add	r25, r24
     3fe:	95 87       	std	Z+13, r25	; 0x0d
			
			
			PILOTE_HORLOGE.date=Maneja_tiempo.date_prog;
     400:	83 83       	std	Z+3, r24	; 0x03
			PILOTE_HORLOGE.year=Maneja_tiempo.year_prog;
     402:	15 96       	adiw	r26, 0x05	; 5
     404:	8c 91       	ld	r24, X
     406:	85 83       	std	Z+5, r24	; 0x05
     408:	13 c0       	rjmp	.+38     	; 0x430 <__FUSE_REGION_LENGTH__+0x30>
			
		
	}
	
	
	if(MODE_DEPLOYE.selectionner_mode== PRG_YR)
     40a:	86 30       	cpi	r24, 0x06	; 6
     40c:	69 f4       	brne	.+26     	; 0x428 <__FUSE_REGION_LENGTH__+0x28>
	{
		PILOTE_HORLOGE.past_year=Maneja_tiempo.year_prog;
     40e:	a1 ec       	ldi	r26, 0xC1	; 193
     410:	b0 e0       	ldi	r27, 0x00	; 0
     412:	15 96       	adiw	r26, 0x05	; 5
     414:	8c 91       	ld	r24, X
     416:	15 97       	sbiw	r26, 0x05	; 5
     418:	e1 e6       	ldi	r30, 0x61	; 97
     41a:	f0 e0       	ldi	r31, 0x00	; 0
     41c:	86 87       	std	Z+14, r24	; 0x0e
		
		PILOTE_HORLOGE.year=Maneja_tiempo.year_prog;
     41e:	85 83       	std	Z+5, r24	; 0x05
		PILOTE_HORLOGE.date=Maneja_tiempo.date_prog;
     420:	14 96       	adiw	r26, 0x04	; 4
     422:	8c 91       	ld	r24, X
     424:	83 83       	std	Z+3, r24	; 0x03
     426:	04 c0       	rjmp	.+8      	; 0x430 <__FUSE_REGION_LENGTH__+0x30>
		
		
	}
	
	if(MODE_DEPLOYE.selectionner_mode!= NO_PRG)
     428:	88 23       	and	r24, r24
     42a:	49 f0       	breq	.+18     	; 0x43e <__FUSE_REGION_LENGTH__+0x3e>
	{
		//poner condicion para que no suene estando en modo programacion de alarma
	 if(MODE_DEPLOYE.selectionner_mode<PRG_Ovrrd)
     42c:	87 30       	cpi	r24, 0x07	; 7
     42e:	50 f4       	brcc	.+20     	; 0x444 <__FUSE_REGION_LENGTH__+0x44>
		on_audio(SOUND_ENTER_SETTINGS);
     430:	83 e0       	ldi	r24, 0x03	; 3
     432:	0e 94 66 14 	call	0x28cc	; 0x28cc <on_audio>
		
	 
		
	}
	
	if(MODE_DEPLOYE.selectionner_mode== NO_PRG)
     436:	80 91 b0 00 	lds	r24, 0x00B0	; 0x8000b0 <MODE_DEPLOYE>
     43a:	81 11       	cpse	r24, r1
     43c:	03 c0       	rjmp	.+6      	; 0x444 <__FUSE_REGION_LENGTH__+0x44>
	{
		on_audio(SOUND_MENU_CLOSE);
     43e:	85 e0       	ldi	r24, 0x05	; 5
     440:	0e 94 66 14 	call	0x28cc	; 0x28cc <on_audio>

/******************************************************/
/**********Boton Programa Alarma*******************///
/*************************************************/////

tmp_2= PORT_IN_BTNS & BTN_ALARM ;
     444:	80 b3       	in	r24, 0x10	; 16

if((BOUTONS_PILOTES.boton_num[BTN_ALARMA]&BTN_ALARM) != tmp_2)
     446:	90 91 b6 00 	lds	r25, 0x00B6	; 0x8000b6 <BOUTONS_PILOTES+0x3>
     44a:	98 70       	andi	r25, 0x08	; 8
     44c:	88 70       	andi	r24, 0x08	; 8
     44e:	98 17       	cp	r25, r24
     450:	09 f4       	brne	.+2      	; 0x454 <__FUSE_REGION_LENGTH__+0x54>
     452:	90 c0       	rjmp	.+288    	; 0x574 <__FUSE_REGION_LENGTH__+0x174>
{
	BOUTONS_PILOTES.boton_num[BTN_ALARMA]=PORT_IN_BTNS;
     454:	80 b3       	in	r24, 0x10	; 16
     456:	80 93 b6 00 	sts	0x00B6, r24	; 0x8000b6 <BOUTONS_PILOTES+0x3>
	
	switch (MODE_DEPLOYE.selectionner_mode)
     45a:	80 91 b0 00 	lds	r24, 0x00B0	; 0x8000b0 <MODE_DEPLOYE>
     45e:	89 30       	cpi	r24, 0x09	; 9
     460:	09 f4       	brne	.+2      	; 0x464 <__FUSE_REGION_LENGTH__+0x64>
     462:	56 c0       	rjmp	.+172    	; 0x510 <__FUSE_REGION_LENGTH__+0x110>
     464:	30 f4       	brcc	.+12     	; 0x472 <__FUSE_REGION_LENGTH__+0x72>
     466:	88 23       	and	r24, r24
     468:	59 f0       	breq	.+22     	; 0x480 <__FUSE_REGION_LENGTH__+0x80>
     46a:	88 30       	cpi	r24, 0x08	; 8
     46c:	09 f4       	brne	.+2      	; 0x470 <__FUSE_REGION_LENGTH__+0x70>
     46e:	43 c0       	rjmp	.+134    	; 0x4f6 <__FUSE_REGION_LENGTH__+0xf6>
     470:	81 c0       	rjmp	.+258    	; 0x574 <__FUSE_REGION_LENGTH__+0x174>
     472:	8a 30       	cpi	r24, 0x0A	; 10
     474:	09 f4       	brne	.+2      	; 0x478 <__FUSE_REGION_LENGTH__+0x78>
     476:	5b c0       	rjmp	.+182    	; 0x52e <__FUSE_REGION_LENGTH__+0x12e>
     478:	8b 30       	cpi	r24, 0x0B	; 11
     47a:	09 f4       	brne	.+2      	; 0x47e <__FUSE_REGION_LENGTH__+0x7e>
     47c:	6c c0       	rjmp	.+216    	; 0x556 <__FUSE_REGION_LENGTH__+0x156>
     47e:	7a c0       	rjmp	.+244    	; 0x574 <__FUSE_REGION_LENGTH__+0x174>
	{
		
	
	case NO_PRG:		
	
	 if((PORT_IN_BUSY & BUSY_WT588)==Mask_BIT2)
     480:	ca 9b       	sbis	0x19, 2	; 25
     482:	04 c0       	rjmp	.+8      	; 0x48c <__FUSE_REGION_LENGTH__+0x8c>
		{
			Execute_audio(SOUND_STOP);
     484:	8e ef       	ldi	r24, 0xFE	; 254
     486:	0e 94 5d 14 	call	0x28ba	; 0x28ba <Execute_audio>
     48a:	74 c0       	rjmp	.+232    	; 0x574 <__FUSE_REGION_LENGTH__+0x174>
				
		}
	else
	{
		MODE_DEPLOYE.selectionner_mode=PRG_ALRM_MIN;//min
     48c:	89 e0       	ldi	r24, 0x09	; 9
     48e:	80 93 b0 00 	sts	0x00B0, r24	; 0x8000b0 <MODE_DEPLOYE>
		
		Drive_Alarm.sv_rd_sec_alrm_aadr=SAVE_ALRM_ON_OFF;
     492:	80 91 60 00 	lds	r24, 0x0060	; 0x800060 <__DATA_REGION_ORIGIN__>
		Drive_Alarm.sv_rd_min_alrm_aadr=SAVE_ALRM_MIN;
     496:	80 7c       	andi	r24, 0xC0	; 192
		Drive_Alarm.sv_rd_hour_alrm_aadr=SAVE_ALRM_HR;
     498:	8d 61       	ori	r24, 0x1D	; 29
     49a:	80 93 60 00 	sts	0x0060, r24	; 0x800060 <__DATA_REGION_ORIGIN__>
		
		
		PILOTE_HORLOGE.sec=EEReadByte(Drive_Alarm.sv_rd_sec_alrm_aadr);
     49e:	81 e0       	ldi	r24, 0x01	; 1
     4a0:	90 e0       	ldi	r25, 0x00	; 0
     4a2:	0e 94 cb 00 	call	0x196	; 0x196 <EEReadByte>
     4a6:	c1 e6       	ldi	r28, 0x61	; 97
     4a8:	d0 e0       	ldi	r29, 0x00	; 0
     4aa:	88 83       	st	Y, r24
		DELAY_us(800);
     4ac:	80 e2       	ldi	r24, 0x20	; 32
     4ae:	93 e0       	ldi	r25, 0x03	; 3
     4b0:	0e 94 97 0e 	call	0x1d2e	; 0x1d2e <DELAY_us>
		PILOTE_HORLOGE.min= EEReadByte(Drive_Alarm.sv_rd_min_alrm_aadr);
     4b4:	80 91 60 00 	lds	r24, 0x0060	; 0x800060 <__DATA_REGION_ORIGIN__>
     4b8:	86 95       	lsr	r24
     4ba:	83 70       	andi	r24, 0x03	; 3
     4bc:	90 e0       	ldi	r25, 0x00	; 0
     4be:	0e 94 cb 00 	call	0x196	; 0x196 <EEReadByte>
     4c2:	89 83       	std	Y+1, r24	; 0x01
		
		DELAY_us(800);
     4c4:	80 e2       	ldi	r24, 0x20	; 32
     4c6:	93 e0       	ldi	r25, 0x03	; 3
     4c8:	0e 94 97 0e 	call	0x1d2e	; 0x1d2e <DELAY_us>
		PILOTE_HORLOGE.hour= EEReadByte(Drive_Alarm.sv_rd_hour_alrm_aadr);
     4cc:	80 91 60 00 	lds	r24, 0x0060	; 0x800060 <__DATA_REGION_ORIGIN__>
     4d0:	86 95       	lsr	r24
     4d2:	86 95       	lsr	r24
     4d4:	86 95       	lsr	r24
     4d6:	87 70       	andi	r24, 0x07	; 7
     4d8:	90 e0       	ldi	r25, 0x00	; 0
     4da:	0e 94 cb 00 	call	0x196	; 0x196 <EEReadByte>
     4de:	8a 83       	std	Y+2, r24	; 0x02
		
		DELAY_us(800);
     4e0:	80 e2       	ldi	r24, 0x20	; 32
     4e2:	93 e0       	ldi	r25, 0x03	; 3
     4e4:	0e 94 97 0e 	call	0x1d2e	; 0x1d2e <DELAY_us>
		
		PILOTE_HORLOGE.alrm_sec=PILOTE_HORLOGE.sec;		
     4e8:	88 81       	ld	r24, Y
     4ea:	8e 83       	std	Y+6, r24	; 0x06
		PILOTE_HORLOGE.alrm_min=PILOTE_HORLOGE.min;
     4ec:	89 81       	ldd	r24, Y+1	; 0x01
     4ee:	8f 83       	std	Y+7, r24	; 0x07
		PILOTE_HORLOGE.alrm_hr =PILOTE_HORLOGE.hour;
     4f0:	8a 81       	ldd	r24, Y+2	; 0x02
     4f2:	88 87       	std	Y+8, r24	; 0x08
     4f4:	3f c0       	rjmp	.+126    	; 0x574 <__FUSE_REGION_LENGTH__+0x174>
	
	break;
		
	case PRG_ALRM_SEG:
	
	MODE_DEPLOYE.selectionner_mode++;
     4f6:	89 e0       	ldi	r24, 0x09	; 9
     4f8:	80 93 b0 00 	sts	0x00B0, r24	; 0x8000b0 <MODE_DEPLOYE>
		
	PILOTE_HORLOGE.past_sec_alrm = PILOTE_HORLOGE.sec+1;
     4fc:	e1 e6       	ldi	r30, 0x61	; 97
     4fe:	f0 e0       	ldi	r31, 0x00	; 0
     500:	80 81       	ld	r24, Z
     502:	8f 5f       	subi	r24, 0xFF	; 255
     504:	87 87       	std	Z+15, r24	; 0x0f
	
	PILOTE_HORLOGE.sec=PILOTE_HORLOGE.alrm_sec;
     506:	86 81       	ldd	r24, Z+6	; 0x06
     508:	80 83       	st	Z, r24
	PILOTE_HORLOGE.hour=PILOTE_HORLOGE.alrm_hr;
     50a:	80 85       	ldd	r24, Z+8	; 0x08
     50c:	82 83       	std	Z+2, r24	; 0x02
	
	break;
     50e:	32 c0       	rjmp	.+100    	; 0x574 <__FUSE_REGION_LENGTH__+0x174>
	
	case PRG_ALRM_MIN:
	
	
		
		MODE_DEPLOYE.selectionner_mode++;
     510:	8a e0       	ldi	r24, 0x0A	; 10
     512:	80 93 b0 00 	sts	0x00B0, r24	; 0x8000b0 <MODE_DEPLOYE>
		//PILOTE_HORLOGE.min= EEReadByte(SAVE_ALRM_MIN);
		
		PILOTE_HORLOGE.past_min_alrm = PILOTE_HORLOGE.alrm_min+1;
     516:	e1 e6       	ldi	r30, 0x61	; 97
     518:	f0 e0       	ldi	r31, 0x00	; 0
     51a:	87 81       	ldd	r24, Z+7	; 0x07
     51c:	91 e0       	ldi	r25, 0x01	; 1
     51e:	98 0f       	add	r25, r24
     520:	90 8b       	std	Z+16, r25	; 0x10
		
		PILOTE_HORLOGE.min=PILOTE_HORLOGE.alrm_min;
     522:	81 83       	std	Z+1, r24	; 0x01
		PILOTE_HORLOGE.sec=PILOTE_HORLOGE.alrm_sec;
     524:	86 81       	ldd	r24, Z+6	; 0x06
     526:	80 83       	st	Z, r24
		PILOTE_HORLOGE.hour=PILOTE_HORLOGE.alrm_hr;
     528:	80 85       	ldd	r24, Z+8	; 0x08
     52a:	82 83       	std	Z+2, r24	; 0x02
		
		
		break;	
     52c:	23 c0       	rjmp	.+70     	; 0x574 <__FUSE_REGION_LENGTH__+0x174>
			
	case PRG_ALRM_HR:
			
			MODE_DEPLOYE.selectionner_mode=NO_PRG;
     52e:	10 92 b0 00 	sts	0x00B0, r1	; 0x8000b0 <MODE_DEPLOYE>
			
			
			PILOTE_HORLOGE.sec=PILOTE_HORLOGE.alrm_sec;
     532:	e1 e6       	ldi	r30, 0x61	; 97
     534:	f0 e0       	ldi	r31, 0x00	; 0
     536:	86 81       	ldd	r24, Z+6	; 0x06
     538:	80 83       	st	Z, r24
			PILOTE_HORLOGE.hour=PILOTE_HORLOGE.alrm_hr;
     53a:	40 85       	ldd	r20, Z+8	; 0x08
     53c:	42 83       	std	Z+2, r20	; 0x02
			PILOTE_HORLOGE.min=PILOTE_HORLOGE.alrm_min;
     53e:	67 81       	ldd	r22, Z+7	; 0x07
     540:	61 83       	std	Z+1, r22	; 0x01
			
			PILOTE_HORLOGE.past_hour_alrm = PILOTE_HORLOGE.alrm_hr+1;
     542:	81 e0       	ldi	r24, 0x01	; 1
     544:	84 0f       	add	r24, r20
     546:	81 8b       	std	Z+17, r24	; 0x11
			
			//write2bytes
			EEWrite2Bytes(SAVE_ALRM_MIN,PILOTE_HORLOGE.alrm_min,PILOTE_HORLOGE.alrm_hr);//solo escribe min y hr
     548:	82 e0       	ldi	r24, 0x02	; 2
     54a:	90 e0       	ldi	r25, 0x00	; 0
     54c:	0e 94 88 00 	call	0x110	; 0x110 <EEWrite2Bytes>
			
			//if(On_Off_Options.alarm==TRUE)
		//	on_audio_alrm(PILOTE_HORLOGE.Alarm_PlayList);
			LeeRTC();
     550:	0e 94 58 07 	call	0xeb0	; 0xeb0 <LeeRTC>
			break;
     554:	0f c0       	rjmp	.+30     	; 0x574 <__FUSE_REGION_LENGTH__+0x174>
			
	case PRG_ALRM_ON_OFF:
			MODE_DEPLOYE.selectionner_mode=NO_PRG;
     556:	10 92 b0 00 	sts	0x00B0, r1	; 0x8000b0 <MODE_DEPLOYE>
			
			PILOTE_HORLOGE.past_sec_alrm = PILOTE_HORLOGE.alrm_sec+1;
     55a:	e1 e6       	ldi	r30, 0x61	; 97
     55c:	f0 e0       	ldi	r31, 0x00	; 0
     55e:	66 81       	ldd	r22, Z+6	; 0x06
     560:	81 e0       	ldi	r24, 0x01	; 1
     562:	86 0f       	add	r24, r22
     564:	87 87       	std	Z+15, r24	; 0x0f
			EEWriteByte(SAVE_ALRM_ON_OFF, PILOTE_HORLOGE.alrm_sec);//Esta salvando si esta activa la alarma o desactiva
     566:	81 e0       	ldi	r24, 0x01	; 1
     568:	90 e0       	ldi	r25, 0x00	; 0
     56a:	0e 94 ad 00 	call	0x15a	; 0x15a <EEWriteByte>
		
			
			Execute_audio(SOUND_STOP);
     56e:	8e ef       	ldi	r24, 0xFE	; 254
     570:	0e 94 5d 14 	call	0x28ba	; 0x28ba <Execute_audio>

/***************************************////
/******Boton Mostrar Alarma On-off*///////////////
/****************************************/

tmp_2=PORT_IN_BTNS & BTN_SHW_ALRM;
     574:	80 b3       	in	r24, 0x10	; 16




if((BOUTONS_PILOTES.boton_num[BTN_SHOW_ALARM]&BTN_SHW_ALRM) != tmp_2)
     576:	90 91 ba 00 	lds	r25, 0x00BA	; 0x8000ba <BOUTONS_PILOTES+0x7>
     57a:	90 78       	andi	r25, 0x80	; 128
     57c:	80 78       	andi	r24, 0x80	; 128
     57e:	98 17       	cp	r25, r24
     580:	09 f4       	brne	.+2      	; 0x584 <__FUSE_REGION_LENGTH__+0x184>
     582:	4e c0       	rjmp	.+156    	; 0x620 <__FUSE_REGION_LENGTH__+0x220>
{
	BOUTONS_PILOTES.boton_num[BTN_SHOW_ALARM]=PORT_IN_BTNS;
     584:	80 b3       	in	r24, 0x10	; 16
     586:	80 93 ba 00 	sts	0x00BA, r24	; 0x8000ba <BOUTONS_PILOTES+0x7>
	
	/*  aqui  */
	
	if(MODE_DEPLOYE.selectionner_mode==NO_PRG)
     58a:	80 91 b0 00 	lds	r24, 0x00B0	; 0x8000b0 <MODE_DEPLOYE>
     58e:	81 11       	cpse	r24, r1
     590:	26 c0       	rjmp	.+76     	; 0x5de <__FUSE_REGION_LENGTH__+0x1de>
	{
		if((PORT_IN_BUSY & BUSY_WT588)==Mask_BIT2)
     592:	ca 9b       	sbis	0x19, 2	; 25
     594:	04 c0       	rjmp	.+8      	; 0x59e <__FUSE_REGION_LENGTH__+0x19e>
		{
			
			Execute_audio(SOUND_STOP);
     596:	8e ef       	ldi	r24, 0xFE	; 254
     598:	0e 94 5d 14 	call	0x28ba	; 0x28ba <Execute_audio>
     59c:	41 c0       	rjmp	.+130    	; 0x620 <__FUSE_REGION_LENGTH__+0x220>
		}
		else
		{
			
			switch(KIND_DISPLAY.show_date)
     59e:	80 91 ab 00 	lds	r24, 0x00AB	; 0x8000ab <KIND_DISPLAY>
     5a2:	88 23       	and	r24, r24
     5a4:	c1 f0       	breq	.+48     	; 0x5d6 <__FUSE_REGION_LENGTH__+0x1d6>
     5a6:	82 30       	cpi	r24, 0x02	; 2
     5a8:	d9 f5       	brne	.+118    	; 0x620 <__FUSE_REGION_LENGTH__+0x220>
				
				case ALARM:
				
				if(MODE_DEPLOYE.selectionner_mode==NO_PRG)
				{
					MODE_DEPLOYE.selectionner_mode=PRG_ALRM_ON_OFF;
     5aa:	8b e0       	ldi	r24, 0x0B	; 11
     5ac:	80 93 b0 00 	sts	0x00B0, r24	; 0x8000b0 <MODE_DEPLOYE>
					KIND_DISPLAY.show_date=CLOCK;
     5b0:	0b ea       	ldi	r16, 0xAB	; 171
     5b2:	10 e0       	ldi	r17, 0x00	; 0
     5b4:	f8 01       	movw	r30, r16
     5b6:	10 82       	st	Z, r1
					on_audio_alrm(PILOTE_HORLOGE.Alarm_PlayList);
     5b8:	c1 e6       	ldi	r28, 0x61	; 97
     5ba:	d0 e0       	ldi	r29, 0x00	; 0
     5bc:	8d 89       	ldd	r24, Y+21	; 0x15
     5be:	0e 94 6d 14 	call	0x28da	; 0x28da <on_audio_alrm>
					PILOTE_HORLOGE.sec=EEReadByte(SAVE_ALRM_ON_OFF);
     5c2:	81 e0       	ldi	r24, 0x01	; 1
     5c4:	90 e0       	ldi	r25, 0x00	; 0
     5c6:	0e 94 cb 00 	call	0x196	; 0x196 <EEReadByte>
     5ca:	88 83       	st	Y, r24
					PILOTE_HORLOGE.alrm_sec=PILOTE_HORLOGE.sec;
     5cc:	8e 83       	std	Y+6, r24	; 0x06
					Execute_audio(SOUND_STOP);
					PILOTE_HORLOGE.lee_RTC=TRUE;
					LeeRTC();
					
				}
				KIND_DISPLAY.show_count=0;
     5ce:	f8 01       	movw	r30, r16
     5d0:	12 82       	std	Z+2, r1	; 0x02
     5d2:	11 82       	std	Z+1, r1	; 0x01
				break;
     5d4:	25 c0       	rjmp	.+74     	; 0x620 <__FUSE_REGION_LENGTH__+0x220>
				
				case CLOCK:
				KIND_DISPLAY.show_date=ALARM;
     5d6:	82 e0       	ldi	r24, 0x02	; 2
     5d8:	80 93 ab 00 	sts	0x00AB, r24	; 0x8000ab <KIND_DISPLAY>
				//  On_Off_Options.alarm=FALSE;
				break;
     5dc:	21 c0       	rjmp	.+66     	; 0x620 <__FUSE_REGION_LENGTH__+0x220>
		}
		
	}
	else
	{
		switch(KIND_DISPLAY.show_date)
     5de:	80 91 ab 00 	lds	r24, 0x00AB	; 0x8000ab <KIND_DISPLAY>
     5e2:	88 23       	and	r24, r24
     5e4:	d1 f0       	breq	.+52     	; 0x61a <__FUSE_REGION_LENGTH__+0x21a>
     5e6:	82 30       	cpi	r24, 0x02	; 2
     5e8:	d9 f4       	brne	.+54     	; 0x620 <__FUSE_REGION_LENGTH__+0x220>
				PILOTE_HORLOGE.alrm_sec=PILOTE_HORLOGE.sec;
				
			}
			else
			{
				MODE_DEPLOYE.selectionner_mode=NO_PRG;
     5ea:	10 92 b0 00 	sts	0x00B0, r1	; 0x8000b0 <MODE_DEPLOYE>
				EEWriteByte(SAVE_ALRM_ON_OFF,PILOTE_HORLOGE.alrm_sec);
     5ee:	01 e6       	ldi	r16, 0x61	; 97
     5f0:	10 e0       	ldi	r17, 0x00	; 0
     5f2:	f8 01       	movw	r30, r16
     5f4:	66 81       	ldd	r22, Z+6	; 0x06
     5f6:	81 e0       	ldi	r24, 0x01	; 1
     5f8:	90 e0       	ldi	r25, 0x00	; 0
     5fa:	0e 94 ad 00 	call	0x15a	; 0x15a <EEWriteByte>
				KIND_DISPLAY.show_date=CLOCK;
     5fe:	cb ea       	ldi	r28, 0xAB	; 171
     600:	d0 e0       	ldi	r29, 0x00	; 0
     602:	18 82       	st	Y, r1
				
				Execute_audio(SOUND_STOP);
     604:	8e ef       	ldi	r24, 0xFE	; 254
     606:	0e 94 5d 14 	call	0x28ba	; 0x28ba <Execute_audio>
				PILOTE_HORLOGE.lee_RTC=TRUE;
     60a:	81 e0       	ldi	r24, 0x01	; 1
     60c:	f8 01       	movw	r30, r16
     60e:	81 8f       	std	Z+25, r24	; 0x19
				LeeRTC();
     610:	0e 94 58 07 	call	0xeb0	; 0xeb0 <LeeRTC>
				
			}
			KIND_DISPLAY.show_count=0;
     614:	1a 82       	std	Y+2, r1	; 0x02
     616:	19 82       	std	Y+1, r1	; 0x01
			break;
     618:	03 c0       	rjmp	.+6      	; 0x620 <__FUSE_REGION_LENGTH__+0x220>
			
			case CLOCK:
			KIND_DISPLAY.show_date=ALARM;
     61a:	82 e0       	ldi	r24, 0x02	; 2
     61c:	80 93 ab 00 	sts	0x00AB, r24	; 0x8000ab <KIND_DISPLAY>

/******************************************/
/*******Boton mostrar fecha**************///
/*****************************************/

tmp_2=PIN_BTN5  & BTN_MSK_SWDATE;
     620:	89 b3       	in	r24, 0x19	; 25

if((BOUTONS_PILOTES.boton_num[BTN_SHOW_DATE]&BTN_MSK_SWDATE) != tmp_2)
     622:	90 91 b8 00 	lds	r25, 0x00B8	; 0x8000b8 <BOUTONS_PILOTES+0x5>
     626:	98 70       	andi	r25, 0x08	; 8
     628:	88 70       	andi	r24, 0x08	; 8
     62a:	98 17       	cp	r25, r24
     62c:	99 f0       	breq	.+38     	; 0x654 <__FUSE_REGION_LENGTH__+0x254>
{
BOUTONS_PILOTES.boton_num[BTN_SHOW_DATE]=PIN_BTN5;
     62e:	89 b3       	in	r24, 0x19	; 25
     630:	80 93 b8 00 	sts	0x00B8, r24	; 0x8000b8 <BOUTONS_PILOTES+0x5>

 switch(KIND_DISPLAY.show_date)
     634:	80 91 ab 00 	lds	r24, 0x00AB	; 0x8000ab <KIND_DISPLAY>
     638:	88 23       	and	r24, r24
     63a:	19 f0       	breq	.+6      	; 0x642 <__FUSE_REGION_LENGTH__+0x242>
     63c:	81 30       	cpi	r24, 0x01	; 1
     63e:	29 f0       	breq	.+10     	; 0x64a <__FUSE_REGION_LENGTH__+0x24a>
     640:	09 c0       	rjmp	.+18     	; 0x654 <__FUSE_REGION_LENGTH__+0x254>
 
 {
	 
	 case CLOCK:
	 KIND_DISPLAY.show_date=CALENDAR;
     642:	81 e0       	ldi	r24, 0x01	; 1
     644:	80 93 ab 00 	sts	0x00AB, r24	; 0x8000ab <KIND_DISPLAY>
	 break;
     648:	05 c0       	rjmp	.+10     	; 0x654 <__FUSE_REGION_LENGTH__+0x254>
	 case CALENDAR:
	 KIND_DISPLAY.show_date=CLOCK;
     64a:	eb ea       	ldi	r30, 0xAB	; 171
     64c:	f0 e0       	ldi	r31, 0x00	; 0
     64e:	10 82       	st	Z, r1
	 KIND_DISPLAY.show_count=0;
     650:	12 82       	std	Z+2, r1	; 0x02
     652:	11 82       	std	Z+1, r1	; 0x01

/***************************************************/
/******Boton Muestra apaga Alarma/sonidos**********/
/*********************************************/////

tmp_2= PORT_IN_BTNS  & BTN_CNF_SONIDOS ;
     654:	80 b3       	in	r24, 0x10	; 16

if((BOUTONS_PILOTES.boton_num[BTN_CNF_SOUND]&BTN_CNF_SONIDOS) != tmp_2)
     656:	90 91 b9 00 	lds	r25, 0x00B9	; 0x8000b9 <BOUTONS_PILOTES+0x6>
     65a:	90 74       	andi	r25, 0x40	; 64
     65c:	80 74       	andi	r24, 0x40	; 64
     65e:	98 17       	cp	r25, r24
     660:	21 f1       	breq	.+72     	; 0x6aa <__FUSE_REGION_LENGTH__+0x2aa>
{
	BOUTONS_PILOTES.boton_num[BTN_CNF_SOUND]= PORT_IN_BTNS;	
     662:	80 b3       	in	r24, 0x10	; 16
     664:	80 93 b9 00 	sts	0x00B9, r24	; 0x8000b9 <BOUTONS_PILOTES+0x6>
	
	
	  switch (MODE_DEPLOYE.selectionner_mode)
     668:	80 91 b0 00 	lds	r24, 0x00B0	; 0x8000b0 <MODE_DEPLOYE>
     66c:	8d 30       	cpi	r24, 0x0D	; 13
     66e:	59 f0       	breq	.+22     	; 0x686 <__FUSE_REGION_LENGTH__+0x286>
     670:	8e 30       	cpi	r24, 0x0E	; 14
     672:	89 f0       	breq	.+34     	; 0x696 <__FUSE_REGION_LENGTH__+0x296>
     674:	81 11       	cpse	r24, r1
     676:	19 c0       	rjmp	.+50     	; 0x6aa <__FUSE_REGION_LENGTH__+0x2aa>
	  {
		  
	  case NO_PRG:
	  MODE_DEPLOYE.selectionner_mode=PRG_SONIDOS;   	  
     678:	8d e0       	ldi	r24, 0x0D	; 13
     67a:	80 93 b0 00 	sts	0x00B0, r24	; 0x8000b0 <MODE_DEPLOYE>
	  on_audio(SOUND_FANFARE);
     67e:	86 e0       	ldi	r24, 0x06	; 6
     680:	0e 94 66 14 	call	0x28cc	; 0x28cc <on_audio>
		break;	 
     684:	12 c0       	rjmp	.+36     	; 0x6aa <__FUSE_REGION_LENGTH__+0x2aa>
	  case PRG_SONIDOS:
	  MODE_DEPLOYE.selectionner_mode=PRG_TIPO_ALARMA;
     686:	8e e0       	ldi	r24, 0x0E	; 14
     688:	80 93 b0 00 	sts	0x00B0, r24	; 0x8000b0 <MODE_DEPLOYE>
	  Execute_audio(PILOTE_HORLOGE.Alarm_PlayList);	 
     68c:	80 91 76 00 	lds	r24, 0x0076	; 0x800076 <PILOTE_HORLOGE+0x15>
     690:	0e 94 5d 14 	call	0x28ba	; 0x28ba <Execute_audio>
	  break;
     694:	0a c0       	rjmp	.+20     	; 0x6aa <__FUSE_REGION_LENGTH__+0x2aa>
	  case PRG_TIPO_ALARMA:
	  MODE_DEPLOYE.selectionner_mode=NO_PRG;
     696:	10 92 b0 00 	sts	0x00B0, r1	; 0x8000b0 <MODE_DEPLOYE>
	  Execute_audio(SOUND_STOP);
     69a:	8e ef       	ldi	r24, 0xFE	; 254
     69c:	0e 94 5d 14 	call	0x28ba	; 0x28ba <Execute_audio>
	  PILOTE_HORLOGE.lee_RTC=TRUE;
     6a0:	81 e0       	ldi	r24, 0x01	; 1
     6a2:	80 93 7a 00 	sts	0x007A, r24	; 0x80007a <PILOTE_HORLOGE+0x19>
	  LeeRTC();
     6a6:	0e 94 58 07 	call	0xeb0	; 0xeb0 <LeeRTC>
	
	
	/****************************************/
/**********Boton On Off**************////
/*************************************/
tmp_2=PORT_IN_BTNS;
     6aa:	80 b3       	in	r24, 0x10	; 16
tmp_2 &= BTN_ON_OFF;

if((BOUTONS_PILOTES.boton_num[BTN_PRENDE_APAGA]&BTN_ON_OFF)!=tmp_2)
     6ac:	90 91 b7 00 	lds	r25, 0x00B7	; 0x8000b7 <BOUTONS_PILOTES+0x4>
     6b0:	90 71       	andi	r25, 0x10	; 16
     6b2:	80 71       	andi	r24, 0x10	; 16
     6b4:	98 17       	cp	r25, r24
     6b6:	51 f1       	breq	.+84     	; 0x70c <__FUSE_REGION_LENGTH__+0x30c>
{
	
	switch(ESTADO.ON_OFF)
     6b8:	80 91 c7 00 	lds	r24, 0x00C7	; 0x8000c7 <ESTADO>
     6bc:	88 23       	and	r24, r24
     6be:	19 f0       	breq	.+6      	; 0x6c6 <__FUSE_REGION_LENGTH__+0x2c6>
     6c0:	81 30       	cpi	r24, 0x01	; 1
     6c2:	e1 f0       	breq	.+56     	; 0x6fc <__FUSE_REGION_LENGTH__+0x2fc>
     6c4:	20 c0       	rjmp	.+64     	; 0x706 <__FUSE_REGION_LENGTH__+0x306>
	{
		case FALSE:
		
		ESTADO.ON_OFF=TRUE;
     6c6:	81 e0       	ldi	r24, 0x01	; 1
     6c8:	80 93 c7 00 	sts	0x00C7, r24	; 0x8000c7 <ESTADO>
		DDRD |=(1<<PD5);
     6cc:	8d 9a       	sbi	0x11, 5	; 17

		TCCR1A= (1<<COM1A1) | (1<<COM1A0) | (1<<WGM11) | (1<<WGM10);
     6ce:	83 ec       	ldi	r24, 0xC3	; 195
     6d0:	8f bd       	out	0x2f, r24	; 47
		TCCR1B= (1<<WGM12)  | (1<<CS10);
     6d2:	89 e0       	ldi	r24, 0x09	; 9
     6d4:	8e bd       	out	0x2e, r24	; 46
    BOUTONS_PILOTES.boton_num[0]=PORT_IN_BTNS ;
     6d6:	80 b3       	in	r24, 0x10	; 16
     6d8:	e3 eb       	ldi	r30, 0xB3	; 179
     6da:	f0 e0       	ldi	r31, 0x00	; 0
     6dc:	80 83       	st	Z, r24
	BOUTONS_PILOTES.boton_num[1]=PORT_IN_BTNS ;
     6de:	80 b3       	in	r24, 0x10	; 16
     6e0:	81 83       	std	Z+1, r24	; 0x01
	BOUTONS_PILOTES.boton_num[2]=PORT_IN_BTNS;
     6e2:	80 b3       	in	r24, 0x10	; 16
     6e4:	82 83       	std	Z+2, r24	; 0x02
	BOUTONS_PILOTES.boton_num[3]=PORT_IN_BTNS;
     6e6:	80 b3       	in	r24, 0x10	; 16
     6e8:	83 83       	std	Z+3, r24	; 0x03
	BOUTONS_PILOTES.boton_num[4]=PORT_IN_BTNS;
     6ea:	80 b3       	in	r24, 0x10	; 16
     6ec:	84 83       	std	Z+4, r24	; 0x04
	/******************************************************////
	BOUTONS_PILOTES.boton_num[5]=PIN_BTN5     ;//****PD5 OC1A (PWM) y va al OE del 595 asi que le asignamos PA3 al boton 5
     6ee:	89 b3       	in	r24, 0x19	; 25
     6f0:	85 83       	std	Z+5, r24	; 0x05
	/********************************************************/////
	BOUTONS_PILOTES.boton_num[6]=PORT_IN_BTNS ;
     6f2:	80 b3       	in	r24, 0x10	; 16
     6f4:	86 83       	std	Z+6, r24	; 0x06
	BOUTONS_PILOTES.boton_num[7]=PORT_IN_BTNS ;
     6f6:	80 b3       	in	r24, 0x10	; 16
     6f8:	87 83       	std	Z+7, r24	; 0x07
	break;
     6fa:	05 c0       	rjmp	.+10     	; 0x706 <__FUSE_REGION_LENGTH__+0x306>
	
        case TRUE:
 
		ESTADO.ON_OFF=FALSE;
     6fc:	10 92 c7 00 	sts	0x00C7, r1	; 0x8000c7 <ESTADO>
		
	
	TCCR1A=0; //(~(1<<COM1A1)) | (~(1<<COM1A0)) | (~(1<<WGM11)) | (~(1<<WGM10)) ;
     700:	1f bc       	out	0x2f, r1	; 47
	TCCR1B=0;//(~(1<<WGM12))  | (~(1<<CS10));
     702:	1e bc       	out	0x2e, r1	; 46
	
	
		PORTD |= (1<<PD5);
     704:	95 9a       	sbi	0x12, 5	; 18

	break;

	}
	
		BOUTONS_PILOTES.boton_num[BTN_PRENDE_APAGA]=PORT_IN_BTNS;
     706:	80 b3       	in	r24, 0x10	; 16
     708:	80 93 b7 00 	sts	0x00B7, r24	; 0x8000b7 <BOUTONS_PILOTES+0x4>
    }


 

     70c:	df 91       	pop	r29
     70e:	cf 91       	pop	r28
     710:	1f 91       	pop	r17
     712:	0f 91       	pop	r16
     714:	08 95       	ret

00000716 <Mode_de_DEPLOYE>:
#include "display.h"
#include "atc24.h"
#include "WT588D.h"

void Mode_de_DEPLOYE (void)
{	
     716:	cf 93       	push	r28
     718:	df 93       	push	r29
	switch (MODE_DEPLOYE.selectionner_mode)
     71a:	e0 91 b0 00 	lds	r30, 0x00B0	; 0x8000b0 <MODE_DEPLOYE>
     71e:	8e 2f       	mov	r24, r30
     720:	90 e0       	ldi	r25, 0x00	; 0
     722:	fc 01       	movw	r30, r24
     724:	31 97       	sbiw	r30, 0x01	; 1
     726:	ee 30       	cpi	r30, 0x0E	; 14
     728:	f1 05       	cpc	r31, r1
     72a:	08 f0       	brcs	.+2      	; 0x72e <Mode_de_DEPLOYE+0x18>
     72c:	c1 c2       	rjmp	.+1410   	; 0xcb0 <__stack+0x451>
     72e:	e6 5d       	subi	r30, 0xD6	; 214
     730:	ff 4f       	sbci	r31, 0xFF	; 255
     732:	0c 94 f1 14 	jmp	0x29e2	; 0x29e2 <__tablejump2__>
	{	
	case PRG_SEG:		
	if(BOUTONS_PILOTES.boton_top_hd)
     736:	80 91 bb 00 	lds	r24, 0x00BB	; 0x8000bb <BOUTONS_PILOTES+0x8>
     73a:	88 23       	and	r24, r24
     73c:	81 f0       	breq	.+32     	; 0x75e <Mode_de_DEPLOYE+0x48>
	   {
		//****suma 1 segundo   
	   Maneja_tiempo.sec_prog++;
     73e:	80 91 c1 00 	lds	r24, 0x00C1	; 0x8000c1 <Maneja_tiempo>
     742:	8f 5f       	subi	r24, 0xFF	; 255
	   if(Maneja_tiempo.sec_prog>59/*segundos*/)	   
     744:	8c 33       	cpi	r24, 0x3C	; 60
     746:	18 f4       	brcc	.+6      	; 0x74e <Mode_de_DEPLOYE+0x38>
	{	
	case PRG_SEG:		
	if(BOUTONS_PILOTES.boton_top_hd)
	   {
		//****suma 1 segundo   
	   Maneja_tiempo.sec_prog++;
     748:	80 93 c1 00 	sts	0x00C1, r24	; 0x8000c1 <Maneja_tiempo>
     74c:	02 c0       	rjmp	.+4      	; 0x752 <Mode_de_DEPLOYE+0x3c>
	   if(Maneja_tiempo.sec_prog>59/*segundos*/)	   
	   Maneja_tiempo.sec_prog=0;          // si llegó al limite superior de minutos se reinicia a 0 haciendo un bucle
     74e:	10 92 c1 00 	sts	0x00C1, r1	; 0x8000c1 <Maneja_tiempo>
	  //**********************************	  
	   BOUTONS_PILOTES.boton_top_hd=FALSE;
     752:	10 92 bb 00 	sts	0x00BB, r1	; 0x8000bb <BOUTONS_PILOTES+0x8>
	   PILOTE_HORLOGE.sec=Maneja_tiempo.sec_prog;
     756:	80 91 c1 00 	lds	r24, 0x00C1	; 0x8000c1 <Maneja_tiempo>
     75a:	80 93 61 00 	sts	0x0061, r24	; 0x800061 <PILOTE_HORLOGE>
	   }	
	   //********resta 1 segundo   
	if(BOUTONS_PILOTES.boton_dessous_hd)
     75e:	80 91 bc 00 	lds	r24, 0x00BC	; 0x8000bc <BOUTONS_PILOTES+0x9>
     762:	88 23       	and	r24, r24
     764:	61 f0       	breq	.+24     	; 0x77e <Mode_de_DEPLOYE+0x68>
	{
		Maneja_tiempo.sec_prog--;
     766:	80 91 c1 00 	lds	r24, 0x00C1	; 0x8000c1 <Maneja_tiempo>
     76a:	81 50       	subi	r24, 0x01	; 1
     76c:	18 f0       	brcs	.+6      	; 0x774 <Mode_de_DEPLOYE+0x5e>
     76e:	80 93 c1 00 	sts	0x00C1, r24	; 0x8000c1 <Maneja_tiempo>
     772:	03 c0       	rjmp	.+6      	; 0x77a <Mode_de_DEPLOYE+0x64>
		if(Maneja_tiempo.sec_prog==0xFF)/* segundos */
		Maneja_tiempo.sec_prog=59; //limite inferior, pasa a superior
     774:	8b e3       	ldi	r24, 0x3B	; 59
     776:	80 93 c1 00 	sts	0x00C1, r24	; 0x8000c1 <Maneja_tiempo>
		BOUTONS_PILOTES.boton_dessous_hd=FALSE;		
     77a:	10 92 bc 00 	sts	0x00BC, r1	; 0x8000bc <BOUTONS_PILOTES+0x9>
		PILOTE_HORLOGE.sec=Maneja_tiempo.sec_prog;//pasa a variable de mostrado
	}   
	
	//***********************parpadeo*******************/////////
	if(PILOTE_HORLOGE.time_toogle==FALSE)
     77e:	80 91 7e 00 	lds	r24, 0x007E	; 0x80007e <PILOTE_HORLOGE+0x1d>
     782:	81 11       	cpse	r24, r1
     784:	06 c0       	rjmp	.+12     	; 0x792 <Mode_de_DEPLOYE+0x7c>
	{
		PILOTE_HORLOGE.sec=0;//
     786:	e1 e6       	ldi	r30, 0x61	; 97
     788:	f0 e0       	ldi	r31, 0x00	; 0
     78a:	10 82       	st	Z, r1
		PILOTE_HORLOGE.past_sec= PILOTE_HORLOGE.sec+2;
     78c:	82 e0       	ldi	r24, 0x02	; 2
     78e:	81 87       	std	Z+9, r24	; 0x09
     790:	8f c2       	rjmp	.+1310   	; 0xcb0 <__stack+0x451>
		//Acomoda_5x32();
		
	}
	else
	{
		PILOTE_HORLOGE.sec=Maneja_tiempo.sec_prog;
     792:	80 91 c1 00 	lds	r24, 0x00C1	; 0x8000c1 <Maneja_tiempo>
     796:	e1 e6       	ldi	r30, 0x61	; 97
     798:	f0 e0       	ldi	r31, 0x00	; 0
     79a:	80 83       	st	Z, r24
		PILOTE_HORLOGE.past_sec=PILOTE_HORLOGE.sec+1;
     79c:	8f 5f       	subi	r24, 0xFF	; 255
     79e:	81 87       	std	Z+9, r24	; 0x09
     7a0:	87 c2       	rjmp	.+1294   	; 0xcb0 <__stack+0x451>
	//PILOTE_HORLOGE.past_sec=PILOTE_HORLOGE.sec_prog;
	break;
	
	case PRG_MIN:
	
	if(BOUTONS_PILOTES.boton_top_hd)
     7a2:	80 91 bb 00 	lds	r24, 0x00BB	; 0x8000bb <BOUTONS_PILOTES+0x8>
     7a6:	88 23       	and	r24, r24
     7a8:	81 f0       	breq	.+32     	; 0x7ca <Mode_de_DEPLOYE+0xb4>
	{	
	
	Maneja_tiempo.min_prog++;
     7aa:	80 91 c2 00 	lds	r24, 0x00C2	; 0x8000c2 <Maneja_tiempo+0x1>
     7ae:	8f 5f       	subi	r24, 0xFF	; 255
	if (Maneja_tiempo.min_prog>59)
     7b0:	8c 33       	cpi	r24, 0x3C	; 60
     7b2:	18 f4       	brcc	.+6      	; 0x7ba <Mode_de_DEPLOYE+0xa4>
	case PRG_MIN:
	
	if(BOUTONS_PILOTES.boton_top_hd)
	{	
	
	Maneja_tiempo.min_prog++;
     7b4:	80 93 c2 00 	sts	0x00C2, r24	; 0x8000c2 <Maneja_tiempo+0x1>
     7b8:	02 c0       	rjmp	.+4      	; 0x7be <Mode_de_DEPLOYE+0xa8>
	if (Maneja_tiempo.min_prog>59)
	Maneja_tiempo.min_prog=0;
     7ba:	10 92 c2 00 	sts	0x00C2, r1	; 0x8000c2 <Maneja_tiempo+0x1>
	
	PILOTE_HORLOGE.min=Maneja_tiempo.min_prog;
     7be:	80 91 c2 00 	lds	r24, 0x00C2	; 0x8000c2 <Maneja_tiempo+0x1>
     7c2:	80 93 62 00 	sts	0x0062, r24	; 0x800062 <PILOTE_HORLOGE+0x1>
	BOUTONS_PILOTES.boton_top_hd=FALSE;
     7c6:	10 92 bb 00 	sts	0x00BB, r1	; 0x8000bb <BOUTONS_PILOTES+0x8>
		
	}
	
	
	if(BOUTONS_PILOTES.boton_dessous_hd)
     7ca:	80 91 bc 00 	lds	r24, 0x00BC	; 0x8000bc <BOUTONS_PILOTES+0x9>
     7ce:	88 23       	and	r24, r24
     7d0:	61 f0       	breq	.+24     	; 0x7ea <Mode_de_DEPLOYE+0xd4>
	{
		Maneja_tiempo.min_prog--;
     7d2:	80 91 c2 00 	lds	r24, 0x00C2	; 0x8000c2 <Maneja_tiempo+0x1>
     7d6:	81 50       	subi	r24, 0x01	; 1
     7d8:	18 f0       	brcs	.+6      	; 0x7e0 <Mode_de_DEPLOYE+0xca>
     7da:	80 93 c2 00 	sts	0x00C2, r24	; 0x8000c2 <Maneja_tiempo+0x1>
     7de:	03 c0       	rjmp	.+6      	; 0x7e6 <Mode_de_DEPLOYE+0xd0>
		if(Maneja_tiempo.min_prog==0xFF)
		Maneja_tiempo.min_prog=59;
     7e0:	8b e3       	ldi	r24, 0x3B	; 59
     7e2:	80 93 c2 00 	sts	0x00C2, r24	; 0x8000c2 <Maneja_tiempo+0x1>
		BOUTONS_PILOTES.boton_dessous_hd=FALSE;
     7e6:	10 92 bc 00 	sts	0x00BC, r1	; 0x8000bc <BOUTONS_PILOTES+0x9>
		PILOTE_HORLOGE.min=Maneja_tiempo.min_prog;
		
	}
//*******************parpadeo*****************	
	if(PILOTE_HORLOGE.time_toogle==FALSE)
     7ea:	80 91 7e 00 	lds	r24, 0x007E	; 0x80007e <PILOTE_HORLOGE+0x1d>
     7ee:	81 11       	cpse	r24, r1
     7f0:	06 c0       	rjmp	.+12     	; 0x7fe <Mode_de_DEPLOYE+0xe8>
	{
		PILOTE_HORLOGE.min=0;//programar en ACOMODA5x32(); un numero mayor al limite superior para mejor parpadeo donde se apague por completo
     7f2:	e1 e6       	ldi	r30, 0x61	; 97
     7f4:	f0 e0       	ldi	r31, 0x00	; 0
     7f6:	11 82       	std	Z+1, r1	; 0x01
		
		PILOTE_HORLOGE.past_min= PILOTE_HORLOGE.min+2;
     7f8:	82 e0       	ldi	r24, 0x02	; 2
     7fa:	82 87       	std	Z+10, r24	; 0x0a
     7fc:	59 c2       	rjmp	.+1202   	; 0xcb0 <__stack+0x451>
		//Acomoda_5x32();
		
	}
	else
	{
		PILOTE_HORLOGE.min=Maneja_tiempo.min_prog;
     7fe:	80 91 c2 00 	lds	r24, 0x00C2	; 0x8000c2 <Maneja_tiempo+0x1>
     802:	e1 e6       	ldi	r30, 0x61	; 97
     804:	f0 e0       	ldi	r31, 0x00	; 0
     806:	81 83       	std	Z+1, r24	; 0x01
		PILOTE_HORLOGE.past_min=PILOTE_HORLOGE.min+1;
     808:	8f 5f       	subi	r24, 0xFF	; 255
     80a:	82 87       	std	Z+10, r24	; 0x0a
     80c:	51 c2       	rjmp	.+1186   	; 0xcb0 <__stack+0x451>
	
	break;
	
	case PRG_HR:	
	
	if(BOUTONS_PILOTES.boton_top_hd==TRUE)
     80e:	80 91 bb 00 	lds	r24, 0x00BB	; 0x8000bb <BOUTONS_PILOTES+0x8>
     812:	81 30       	cpi	r24, 0x01	; 1
     814:	81 f4       	brne	.+32     	; 0x836 <Mode_de_DEPLOYE+0x120>
	{
		Maneja_tiempo.hour_prog++;
     816:	80 91 c3 00 	lds	r24, 0x00C3	; 0x8000c3 <Maneja_tiempo+0x2>
     81a:	8f 5f       	subi	r24, 0xFF	; 255
		if(Maneja_tiempo.hour_prog>23)
     81c:	88 31       	cpi	r24, 0x18	; 24
     81e:	18 f4       	brcc	.+6      	; 0x826 <Mode_de_DEPLOYE+0x110>
	
	case PRG_HR:	
	
	if(BOUTONS_PILOTES.boton_top_hd==TRUE)
	{
		Maneja_tiempo.hour_prog++;
     820:	80 93 c3 00 	sts	0x00C3, r24	; 0x8000c3 <Maneja_tiempo+0x2>
     824:	02 c0       	rjmp	.+4      	; 0x82a <Mode_de_DEPLOYE+0x114>
		if(Maneja_tiempo.hour_prog>23)
		Maneja_tiempo.hour_prog=0;
     826:	10 92 c3 00 	sts	0x00C3, r1	; 0x8000c3 <Maneja_tiempo+0x2>
		
		BOUTONS_PILOTES.boton_top_hd=FALSE;
     82a:	10 92 bb 00 	sts	0x00BB, r1	; 0x8000bb <BOUTONS_PILOTES+0x8>
        PILOTE_HORLOGE.hour=Maneja_tiempo.hour_prog;
     82e:	80 91 c3 00 	lds	r24, 0x00C3	; 0x8000c3 <Maneja_tiempo+0x2>
     832:	80 93 63 00 	sts	0x0063, r24	; 0x800063 <PILOTE_HORLOGE+0x2>
			
	}
	
	if(BOUTONS_PILOTES.boton_dessous_hd==TRUE)
     836:	80 91 bc 00 	lds	r24, 0x00BC	; 0x8000bc <BOUTONS_PILOTES+0x9>
     83a:	81 30       	cpi	r24, 0x01	; 1
     83c:	61 f4       	brne	.+24     	; 0x856 <Mode_de_DEPLOYE+0x140>
	{
		Maneja_tiempo.hour_prog--;
     83e:	80 91 c3 00 	lds	r24, 0x00C3	; 0x8000c3 <Maneja_tiempo+0x2>
     842:	81 50       	subi	r24, 0x01	; 1
     844:	18 f0       	brcs	.+6      	; 0x84c <Mode_de_DEPLOYE+0x136>
     846:	80 93 c3 00 	sts	0x00C3, r24	; 0x8000c3 <Maneja_tiempo+0x2>
     84a:	03 c0       	rjmp	.+6      	; 0x852 <Mode_de_DEPLOYE+0x13c>
		if(Maneja_tiempo.hour_prog==0xFF)
		Maneja_tiempo.hour_prog=23;
     84c:	87 e1       	ldi	r24, 0x17	; 23
     84e:	80 93 c3 00 	sts	0x00C3, r24	; 0x8000c3 <Maneja_tiempo+0x2>
		
		BOUTONS_PILOTES.boton_dessous_hd=FALSE;
     852:	10 92 bc 00 	sts	0x00BC, r1	; 0x8000bc <BOUTONS_PILOTES+0x9>
	    PILOTE_HORLOGE.hour=Maneja_tiempo.hour_prog;
		
	}
	
	if(PILOTE_HORLOGE.time_toogle==FALSE)
     856:	80 91 7e 00 	lds	r24, 0x007E	; 0x80007e <PILOTE_HORLOGE+0x1d>
     85a:	81 11       	cpse	r24, r1
     85c:	08 c0       	rjmp	.+16     	; 0x86e <__stack+0xf>
	{
		if(Maneja_tiempo.hour_prog!=11)
		PILOTE_HORLOGE.hour=0;
		else
		PILOTE_HORLOGE.hour=0;
     85e:	10 92 63 00 	sts	0x0063, r1	; 0x800063 <PILOTE_HORLOGE+0x2>
		
		PILOTE_HORLOGE.past_hour= PILOTE_HORLOGE.hour+2;
     862:	e1 e6       	ldi	r30, 0x61	; 97
     864:	f0 e0       	ldi	r31, 0x00	; 0
     866:	82 81       	ldd	r24, Z+2	; 0x02
     868:	8e 5f       	subi	r24, 0xFE	; 254
     86a:	83 87       	std	Z+11, r24	; 0x0b
     86c:	21 c2       	rjmp	.+1090   	; 0xcb0 <__stack+0x451>
		//Acomoda_5x32();
		
	}
	else
	{
		PILOTE_HORLOGE.hour=Maneja_tiempo.hour_prog;
     86e:	80 91 c3 00 	lds	r24, 0x00C3	; 0x8000c3 <Maneja_tiempo+0x2>
     872:	e1 e6       	ldi	r30, 0x61	; 97
     874:	f0 e0       	ldi	r31, 0x00	; 0
     876:	82 83       	std	Z+2, r24	; 0x02
		PILOTE_HORLOGE.past_hour=PILOTE_HORLOGE.hour+1;
     878:	8f 5f       	subi	r24, 0xFF	; 255
     87a:	83 87       	std	Z+11, r24	; 0x0b
     87c:	19 c2       	rjmp	.+1074   	; 0xcb0 <__stack+0x451>
	
	break;
	
	case PRG_MTH:
	
	if(BOUTONS_PILOTES.boton_top_hd==TRUE)
     87e:	80 91 bb 00 	lds	r24, 0x00BB	; 0x8000bb <BOUTONS_PILOTES+0x8>
     882:	81 30       	cpi	r24, 0x01	; 1
     884:	89 f4       	brne	.+34     	; 0x8a8 <__stack+0x49>
	{
		Maneja_tiempo.month_prog++;
     886:	80 91 c4 00 	lds	r24, 0x00C4	; 0x8000c4 <Maneja_tiempo+0x3>
     88a:	8f 5f       	subi	r24, 0xFF	; 255
		if(Maneja_tiempo.month_prog>DIC)
     88c:	8d 30       	cpi	r24, 0x0D	; 13
     88e:	18 f4       	brcc	.+6      	; 0x896 <__stack+0x37>
	
	case PRG_MTH:
	
	if(BOUTONS_PILOTES.boton_top_hd==TRUE)
	{
		Maneja_tiempo.month_prog++;
     890:	80 93 c4 00 	sts	0x00C4, r24	; 0x8000c4 <Maneja_tiempo+0x3>
     894:	03 c0       	rjmp	.+6      	; 0x89c <__stack+0x3d>
		if(Maneja_tiempo.month_prog>DIC)
		Maneja_tiempo.month_prog=ENE;
     896:	81 e0       	ldi	r24, 0x01	; 1
     898:	80 93 c4 00 	sts	0x00C4, r24	; 0x8000c4 <Maneja_tiempo+0x3>
		
		BOUTONS_PILOTES.boton_top_hd=FALSE;
     89c:	10 92 bb 00 	sts	0x00BB, r1	; 0x8000bb <BOUTONS_PILOTES+0x8>
        PILOTE_HORLOGE.month=Maneja_tiempo.month_prog;
     8a0:	80 91 c4 00 	lds	r24, 0x00C4	; 0x8000c4 <Maneja_tiempo+0x3>
     8a4:	80 93 65 00 	sts	0x0065, r24	; 0x800065 <PILOTE_HORLOGE+0x4>
			
	}	
	
	if(BOUTONS_PILOTES.boton_dessous_hd==TRUE)
     8a8:	80 91 bc 00 	lds	r24, 0x00BC	; 0x8000bc <BOUTONS_PILOTES+0x9>
     8ac:	81 30       	cpi	r24, 0x01	; 1
     8ae:	61 f4       	brne	.+24     	; 0x8c8 <__stack+0x69>
	{
		Maneja_tiempo.month_prog--;
     8b0:	80 91 c4 00 	lds	r24, 0x00C4	; 0x8000c4 <Maneja_tiempo+0x3>
     8b4:	81 50       	subi	r24, 0x01	; 1
		if(Maneja_tiempo.month_prog==0x00)
     8b6:	19 f0       	breq	.+6      	; 0x8be <__stack+0x5f>
			
	}	
	
	if(BOUTONS_PILOTES.boton_dessous_hd==TRUE)
	{
		Maneja_tiempo.month_prog--;
     8b8:	80 93 c4 00 	sts	0x00C4, r24	; 0x8000c4 <Maneja_tiempo+0x3>
     8bc:	03 c0       	rjmp	.+6      	; 0x8c4 <__stack+0x65>
		if(Maneja_tiempo.month_prog==0x00)
		Maneja_tiempo.month_prog=DIC;
     8be:	8c e0       	ldi	r24, 0x0C	; 12
     8c0:	80 93 c4 00 	sts	0x00C4, r24	; 0x8000c4 <Maneja_tiempo+0x3>
		
		BOUTONS_PILOTES.boton_dessous_hd=FALSE;
     8c4:	10 92 bc 00 	sts	0x00BC, r1	; 0x8000bc <BOUTONS_PILOTES+0x9>
		PILOTE_HORLOGE.month=Maneja_tiempo.month_prog;
	}
	
	if(PILOTE_HORLOGE.time_toogle==FALSE)
     8c8:	80 91 7e 00 	lds	r24, 0x007E	; 0x80007e <PILOTE_HORLOGE+0x1d>
     8cc:	81 11       	cpse	r24, r1
     8ce:	06 c0       	rjmp	.+12     	; 0x8dc <__stack+0x7d>
	{
		PILOTE_HORLOGE.month=0;
     8d0:	e1 e6       	ldi	r30, 0x61	; 97
     8d2:	f0 e0       	ldi	r31, 0x00	; 0
     8d4:	14 82       	std	Z+4, r1	; 0x04
		PILOTE_HORLOGE.past_month= PILOTE_HORLOGE.month+2;
     8d6:	82 e0       	ldi	r24, 0x02	; 2
     8d8:	84 87       	std	Z+12, r24	; 0x0c
     8da:	ea c1       	rjmp	.+980    	; 0xcb0 <__stack+0x451>
	}
	else
	{
		PILOTE_HORLOGE.month=Maneja_tiempo.month_prog;
     8dc:	80 91 c4 00 	lds	r24, 0x00C4	; 0x8000c4 <Maneja_tiempo+0x3>
     8e0:	e1 e6       	ldi	r30, 0x61	; 97
     8e2:	f0 e0       	ldi	r31, 0x00	; 0
     8e4:	84 83       	std	Z+4, r24	; 0x04
		PILOTE_HORLOGE.past_month=PILOTE_HORLOGE.month+1;
     8e6:	8f 5f       	subi	r24, 0xFF	; 255
     8e8:	84 87       	std	Z+12, r24	; 0x0c
     8ea:	e2 c1       	rjmp	.+964    	; 0xcb0 <__stack+0x451>
	}
	break;
	
case PRG_DAY:

	if(BOUTONS_PILOTES.boton_top_hd==TRUE)
     8ec:	80 91 bb 00 	lds	r24, 0x00BB	; 0x8000bb <BOUTONS_PILOTES+0x8>
     8f0:	81 30       	cpi	r24, 0x01	; 1
     8f2:	81 f4       	brne	.+32     	; 0x914 <__stack+0xb5>
	{
		Maneja_tiempo.date_prog++;
     8f4:	80 91 c5 00 	lds	r24, 0x00C5	; 0x8000c5 <Maneja_tiempo+0x4>
     8f8:	8f 5f       	subi	r24, 0xFF	; 255
		if(Maneja_tiempo.date_prog>31)
     8fa:	80 32       	cpi	r24, 0x20	; 32
     8fc:	18 f4       	brcc	.+6      	; 0x904 <__stack+0xa5>
	
case PRG_DAY:

	if(BOUTONS_PILOTES.boton_top_hd==TRUE)
	{
		Maneja_tiempo.date_prog++;
     8fe:	80 93 c5 00 	sts	0x00C5, r24	; 0x8000c5 <Maneja_tiempo+0x4>
     902:	02 c0       	rjmp	.+4      	; 0x908 <__stack+0xa9>
		if(Maneja_tiempo.date_prog>31)
		Maneja_tiempo.date_prog=0;
     904:	10 92 c5 00 	sts	0x00C5, r1	; 0x8000c5 <Maneja_tiempo+0x4>
		
		BOUTONS_PILOTES.boton_top_hd=FALSE;
     908:	10 92 bb 00 	sts	0x00BB, r1	; 0x8000bb <BOUTONS_PILOTES+0x8>
		PILOTE_HORLOGE.date=Maneja_tiempo.date_prog;
     90c:	80 91 c5 00 	lds	r24, 0x00C5	; 0x8000c5 <Maneja_tiempo+0x4>
     910:	80 93 64 00 	sts	0x0064, r24	; 0x800064 <PILOTE_HORLOGE+0x3>
	}
	
	if(BOUTONS_PILOTES.boton_dessous_hd==TRUE)
     914:	80 91 bc 00 	lds	r24, 0x00BC	; 0x8000bc <BOUTONS_PILOTES+0x9>
     918:	81 30       	cpi	r24, 0x01	; 1
     91a:	61 f4       	brne	.+24     	; 0x934 <__stack+0xd5>
	{
		Maneja_tiempo.date_prog--;
     91c:	80 91 c5 00 	lds	r24, 0x00C5	; 0x8000c5 <Maneja_tiempo+0x4>
     920:	81 50       	subi	r24, 0x01	; 1
     922:	18 f0       	brcs	.+6      	; 0x92a <__stack+0xcb>
     924:	80 93 c5 00 	sts	0x00C5, r24	; 0x8000c5 <Maneja_tiempo+0x4>
     928:	03 c0       	rjmp	.+6      	; 0x930 <__stack+0xd1>
		if(Maneja_tiempo.date_prog==0xFF)
		Maneja_tiempo.date_prog=31;
     92a:	8f e1       	ldi	r24, 0x1F	; 31
     92c:	80 93 c5 00 	sts	0x00C5, r24	; 0x8000c5 <Maneja_tiempo+0x4>
		
		BOUTONS_PILOTES.boton_dessous_hd=FALSE;
     930:	10 92 bc 00 	sts	0x00BC, r1	; 0x8000bc <BOUTONS_PILOTES+0x9>
		PILOTE_HORLOGE.date=Maneja_tiempo.date_prog;
	}
	
	if(PILOTE_HORLOGE.time_toogle==FALSE)
     934:	80 91 7e 00 	lds	r24, 0x007E	; 0x80007e <PILOTE_HORLOGE+0x1d>
     938:	81 11       	cpse	r24, r1
     93a:	06 c0       	rjmp	.+12     	; 0x948 <__stack+0xe9>
	{
		
		PILOTE_HORLOGE.date=0;	//programar en acomoda_date 0 para apagar		
     93c:	e1 e6       	ldi	r30, 0x61	; 97
     93e:	f0 e0       	ldi	r31, 0x00	; 0
     940:	13 82       	std	Z+3, r1	; 0x03
		PILOTE_HORLOGE.past_date= PILOTE_HORLOGE.date+2;
     942:	82 e0       	ldi	r24, 0x02	; 2
     944:	85 87       	std	Z+13, r24	; 0x0d
     946:	b4 c1       	rjmp	.+872    	; 0xcb0 <__stack+0x451>
	}
	else
	{
		PILOTE_HORLOGE.date=Maneja_tiempo.date_prog;
     948:	80 91 c5 00 	lds	r24, 0x00C5	; 0x8000c5 <Maneja_tiempo+0x4>
     94c:	e1 e6       	ldi	r30, 0x61	; 97
     94e:	f0 e0       	ldi	r31, 0x00	; 0
     950:	83 83       	std	Z+3, r24	; 0x03
		PILOTE_HORLOGE.past_date=PILOTE_HORLOGE.date+1;
     952:	8f 5f       	subi	r24, 0xFF	; 255
     954:	85 87       	std	Z+13, r24	; 0x0d
     956:	ac c1       	rjmp	.+856    	; 0xcb0 <__stack+0x451>
	
	break;
	
	case PRG_YR:
	
	if(BOUTONS_PILOTES.boton_top_hd==TRUE)
     958:	80 91 bb 00 	lds	r24, 0x00BB	; 0x8000bb <BOUTONS_PILOTES+0x8>
     95c:	81 30       	cpi	r24, 0x01	; 1
     95e:	81 f4       	brne	.+32     	; 0x980 <__stack+0x121>
	{
		Maneja_tiempo.year_prog++;
     960:	80 91 c6 00 	lds	r24, 0x00C6	; 0x8000c6 <Maneja_tiempo+0x5>
     964:	8f 5f       	subi	r24, 0xFF	; 255
		if(Maneja_tiempo.year_prog>59)
     966:	8c 33       	cpi	r24, 0x3C	; 60
     968:	18 f4       	brcc	.+6      	; 0x970 <__stack+0x111>
	
	case PRG_YR:
	
	if(BOUTONS_PILOTES.boton_top_hd==TRUE)
	{
		Maneja_tiempo.year_prog++;
     96a:	80 93 c6 00 	sts	0x00C6, r24	; 0x8000c6 <Maneja_tiempo+0x5>
     96e:	02 c0       	rjmp	.+4      	; 0x974 <__stack+0x115>
		if(Maneja_tiempo.year_prog>59)
		Maneja_tiempo.year_prog=0;
     970:	10 92 c6 00 	sts	0x00C6, r1	; 0x8000c6 <Maneja_tiempo+0x5>
		
		BOUTONS_PILOTES.boton_top_hd=FALSE;
     974:	10 92 bb 00 	sts	0x00BB, r1	; 0x8000bb <BOUTONS_PILOTES+0x8>
		PILOTE_HORLOGE.year=Maneja_tiempo.year_prog;
     978:	80 91 c6 00 	lds	r24, 0x00C6	; 0x8000c6 <Maneja_tiempo+0x5>
     97c:	80 93 66 00 	sts	0x0066, r24	; 0x800066 <PILOTE_HORLOGE+0x5>
		
	}
	
	if(BOUTONS_PILOTES.boton_dessous_hd==TRUE)
     980:	80 91 bc 00 	lds	r24, 0x00BC	; 0x8000bc <BOUTONS_PILOTES+0x9>
     984:	81 30       	cpi	r24, 0x01	; 1
     986:	61 f4       	brne	.+24     	; 0x9a0 <__stack+0x141>
	{
		Maneja_tiempo.year_prog--;
     988:	80 91 c6 00 	lds	r24, 0x00C6	; 0x8000c6 <Maneja_tiempo+0x5>
     98c:	81 50       	subi	r24, 0x01	; 1
     98e:	18 f0       	brcs	.+6      	; 0x996 <__stack+0x137>
     990:	80 93 c6 00 	sts	0x00C6, r24	; 0x8000c6 <Maneja_tiempo+0x5>
     994:	03 c0       	rjmp	.+6      	; 0x99c <__stack+0x13d>
		if(Maneja_tiempo.year_prog==0xFF)
		Maneja_tiempo.year_prog=59;
     996:	8b e3       	ldi	r24, 0x3B	; 59
     998:	80 93 c6 00 	sts	0x00C6, r24	; 0x8000c6 <Maneja_tiempo+0x5>
		
		BOUTONS_PILOTES.boton_dessous_hd=FALSE;
     99c:	10 92 bc 00 	sts	0x00BC, r1	; 0x8000bc <BOUTONS_PILOTES+0x9>
		PILOTE_HORLOGE.year=Maneja_tiempo.year_prog;
		
	}
	
	if(PILOTE_HORLOGE.time_toogle==FALSE)
     9a0:	80 91 7e 00 	lds	r24, 0x007E	; 0x80007e <PILOTE_HORLOGE+0x1d>
     9a4:	81 11       	cpse	r24, r1
     9a6:	06 c0       	rjmp	.+12     	; 0x9b4 <__stack+0x155>
	{
		
		PILOTE_HORLOGE.year=0;	//programar en acomoda_date 0 para apagar
     9a8:	e1 e6       	ldi	r30, 0x61	; 97
     9aa:	f0 e0       	ldi	r31, 0x00	; 0
     9ac:	15 82       	std	Z+5, r1	; 0x05
		PILOTE_HORLOGE.past_year= PILOTE_HORLOGE.year+2;
     9ae:	82 e0       	ldi	r24, 0x02	; 2
     9b0:	86 87       	std	Z+14, r24	; 0x0e
     9b2:	7e c1       	rjmp	.+764    	; 0xcb0 <__stack+0x451>
		
		
	}
	else
	{
		PILOTE_HORLOGE.year=Maneja_tiempo.year_prog;
     9b4:	80 91 c6 00 	lds	r24, 0x00C6	; 0x8000c6 <Maneja_tiempo+0x5>
     9b8:	e1 e6       	ldi	r30, 0x61	; 97
     9ba:	f0 e0       	ldi	r31, 0x00	; 0
     9bc:	85 83       	std	Z+5, r24	; 0x05
		PILOTE_HORLOGE.past_year=PILOTE_HORLOGE.year+1;
     9be:	8f 5f       	subi	r24, 0xFF	; 255
     9c0:	86 87       	std	Z+14, r24	; 0x0e
     9c2:	76 c1       	rjmp	.+748    	; 0xcb0 <__stack+0x451>
	}
	break;
	

		case PRG_ALRM_SEG:
		if(BOUTONS_PILOTES.boton_top_hd)
     9c4:	80 91 bb 00 	lds	r24, 0x00BB	; 0x8000bb <BOUTONS_PILOTES+0x8>
     9c8:	88 23       	and	r24, r24
     9ca:	81 f0       	breq	.+32     	; 0x9ec <__stack+0x18d>
	   {
		//****suma 1 segundo   
		
	   PILOTE_HORLOGE.alrm_sec++;
     9cc:	80 91 67 00 	lds	r24, 0x0067	; 0x800067 <PILOTE_HORLOGE+0x6>
     9d0:	8f 5f       	subi	r24, 0xFF	; 255
	   if(PILOTE_HORLOGE.alrm_sec>59/*segundos*/)	   
     9d2:	8c 33       	cpi	r24, 0x3C	; 60
     9d4:	18 f4       	brcc	.+6      	; 0x9dc <__stack+0x17d>
		case PRG_ALRM_SEG:
		if(BOUTONS_PILOTES.boton_top_hd)
	   {
		//****suma 1 segundo   
		
	   PILOTE_HORLOGE.alrm_sec++;
     9d6:	80 93 67 00 	sts	0x0067, r24	; 0x800067 <PILOTE_HORLOGE+0x6>
     9da:	02 c0       	rjmp	.+4      	; 0x9e0 <__stack+0x181>
	   if(PILOTE_HORLOGE.alrm_sec>59/*segundos*/)	   
	   PILOTE_HORLOGE.alrm_sec=0;   // si llegó al limite superior de minutos se reinicia a 0 haciendo un bucle
     9dc:	10 92 67 00 	sts	0x0067, r1	; 0x800067 <PILOTE_HORLOGE+0x6>
	  //**********************************	  
	   BOUTONS_PILOTES.boton_top_hd=FALSE;
     9e0:	10 92 bb 00 	sts	0x00BB, r1	; 0x8000bb <BOUTONS_PILOTES+0x8>
	   PILOTE_HORLOGE.sec=PILOTE_HORLOGE.alrm_sec;
     9e4:	e1 e6       	ldi	r30, 0x61	; 97
     9e6:	f0 e0       	ldi	r31, 0x00	; 0
     9e8:	86 81       	ldd	r24, Z+6	; 0x06
     9ea:	80 83       	st	Z, r24
	   
	  
	   
	   }	
	  if(BOUTONS_PILOTES.boton_dessous_hd==TRUE)
     9ec:	80 91 bc 00 	lds	r24, 0x00BC	; 0x8000bc <BOUTONS_PILOTES+0x9>
     9f0:	81 30       	cpi	r24, 0x01	; 1
     9f2:	61 f4       	brne	.+24     	; 0xa0c <__stack+0x1ad>
	  {
		//****resta 1 segundo   
	   PILOTE_HORLOGE.alrm_sec--;
     9f4:	80 91 67 00 	lds	r24, 0x0067	; 0x800067 <PILOTE_HORLOGE+0x6>
     9f8:	81 50       	subi	r24, 0x01	; 1
     9fa:	18 f0       	brcs	.+6      	; 0xa02 <__stack+0x1a3>
     9fc:	80 93 67 00 	sts	0x0067, r24	; 0x800067 <PILOTE_HORLOGE+0x6>
     a00:	03 c0       	rjmp	.+6      	; 0xa08 <__stack+0x1a9>
		  if(PILOTE_HORLOGE.alrm_sec==0xFF)
		  PILOTE_HORLOGE.alrm_sec=59;
     a02:	8b e3       	ldi	r24, 0x3B	; 59
     a04:	80 93 67 00 	sts	0x0067, r24	; 0x800067 <PILOTE_HORLOGE+0x6>
		  
		  BOUTONS_PILOTES.boton_dessous_hd=FALSE;
     a08:	10 92 bc 00 	sts	0x00BC, r1	; 0x8000bc <BOUTONS_PILOTES+0x9>
		  
		  
	  } 
	   
	   //***********************parpadeo*******************/////////
	   if(PILOTE_HORLOGE.time_toogle==FALSE)
     a0c:	80 91 7e 00 	lds	r24, 0x007E	; 0x80007e <PILOTE_HORLOGE+0x1d>
     a10:	81 11       	cpse	r24, r1
     a12:	06 c0       	rjmp	.+12     	; 0xa20 <__stack+0x1c1>
	   {
		   PILOTE_HORLOGE.sec=0;//
     a14:	e1 e6       	ldi	r30, 0x61	; 97
     a16:	f0 e0       	ldi	r31, 0x00	; 0
     a18:	10 82       	st	Z, r1
		   PILOTE_HORLOGE.past_sec_alrm= PILOTE_HORLOGE.sec+2;
     a1a:	82 e0       	ldi	r24, 0x02	; 2
     a1c:	87 87       	std	Z+15, r24	; 0x0f
     a1e:	48 c1       	rjmp	.+656    	; 0xcb0 <__stack+0x451>
		   //Acomoda_5x32();
		   
	   }
	   else
	   {
		   PILOTE_HORLOGE.sec=PILOTE_HORLOGE.alrm_sec;
     a20:	e1 e6       	ldi	r30, 0x61	; 97
     a22:	f0 e0       	ldi	r31, 0x00	; 0
     a24:	86 81       	ldd	r24, Z+6	; 0x06
     a26:	80 83       	st	Z, r24
		   PILOTE_HORLOGE.past_sec_alrm=PILOTE_HORLOGE.sec+1;
     a28:	8f 5f       	subi	r24, 0xFF	; 255
     a2a:	87 87       	std	Z+15, r24	; 0x0f
     a2c:	41 c1       	rjmp	.+642    	; 0xcb0 <__stack+0x451>
			  
		break;
		
		case PRG_ALRM_MIN:
		
		if(BOUTONS_PILOTES.boton_top_hd)
     a2e:	80 91 bb 00 	lds	r24, 0x00BB	; 0x8000bb <BOUTONS_PILOTES+0x8>
     a32:	88 23       	and	r24, r24
     a34:	81 f0       	breq	.+32     	; 0xa56 <__stack+0x1f7>
	   {
		//****suma 1 segundo   
	   PILOTE_HORLOGE.alrm_min++;
     a36:	80 91 68 00 	lds	r24, 0x0068	; 0x800068 <PILOTE_HORLOGE+0x7>
     a3a:	8f 5f       	subi	r24, 0xFF	; 255
	   if(PILOTE_HORLOGE.alrm_min>59/*segundos*/)	   
     a3c:	8c 33       	cpi	r24, 0x3C	; 60
     a3e:	18 f4       	brcc	.+6      	; 0xa46 <__stack+0x1e7>
		case PRG_ALRM_MIN:
		
		if(BOUTONS_PILOTES.boton_top_hd)
	   {
		//****suma 1 segundo   
	   PILOTE_HORLOGE.alrm_min++;
     a40:	80 93 68 00 	sts	0x0068, r24	; 0x800068 <PILOTE_HORLOGE+0x7>
     a44:	02 c0       	rjmp	.+4      	; 0xa4a <__stack+0x1eb>
	   if(PILOTE_HORLOGE.alrm_min>59/*segundos*/)	   
	   PILOTE_HORLOGE.alrm_min=0;   // si llegó al limite superior de minutos se reinicia a 0 haciendo un bucle
     a46:	10 92 68 00 	sts	0x0068, r1	; 0x800068 <PILOTE_HORLOGE+0x7>
	  //**********************************	  
	   BOUTONS_PILOTES.boton_top_hd=FALSE;
     a4a:	10 92 bb 00 	sts	0x00BB, r1	; 0x8000bb <BOUTONS_PILOTES+0x8>
	   PILOTE_HORLOGE.min=PILOTE_HORLOGE.alrm_min;
     a4e:	e1 e6       	ldi	r30, 0x61	; 97
     a50:	f0 e0       	ldi	r31, 0x00	; 0
     a52:	87 81       	ldd	r24, Z+7	; 0x07
     a54:	81 83       	std	Z+1, r24	; 0x01
	   }	
	  if(BOUTONS_PILOTES.boton_dessous_hd==TRUE)
     a56:	80 91 bc 00 	lds	r24, 0x00BC	; 0x8000bc <BOUTONS_PILOTES+0x9>
     a5a:	81 30       	cpi	r24, 0x01	; 1
     a5c:	61 f4       	brne	.+24     	; 0xa76 <__stack+0x217>
	  {
		//****resta 1 segundo   
	   PILOTE_HORLOGE.alrm_min--;
     a5e:	80 91 68 00 	lds	r24, 0x0068	; 0x800068 <PILOTE_HORLOGE+0x7>
     a62:	81 50       	subi	r24, 0x01	; 1
     a64:	18 f0       	brcs	.+6      	; 0xa6c <__stack+0x20d>
     a66:	80 93 68 00 	sts	0x0068, r24	; 0x800068 <PILOTE_HORLOGE+0x7>
     a6a:	03 c0       	rjmp	.+6      	; 0xa72 <__stack+0x213>
		  if(PILOTE_HORLOGE.alrm_min==0xFF)
		  PILOTE_HORLOGE.alrm_min=59;
     a6c:	8b e3       	ldi	r24, 0x3B	; 59
     a6e:	80 93 68 00 	sts	0x0068, r24	; 0x800068 <PILOTE_HORLOGE+0x7>
		  
		  BOUTONS_PILOTES.boton_dessous_hd=FALSE;
     a72:	10 92 bc 00 	sts	0x00BC, r1	; 0x8000bc <BOUTONS_PILOTES+0x9>
		  PILOTE_HORLOGE.min=PILOTE_HORLOGE.alrm_min;
		  
	  } 
	   
	   //***********************parpadeo*******************/////////
	   if(PILOTE_HORLOGE.time_toogle==FALSE)
     a76:	80 91 7e 00 	lds	r24, 0x007E	; 0x80007e <PILOTE_HORLOGE+0x1d>
     a7a:	81 11       	cpse	r24, r1
     a7c:	06 c0       	rjmp	.+12     	; 0xa8a <__stack+0x22b>
	   {
		   PILOTE_HORLOGE.min=0;//
     a7e:	e1 e6       	ldi	r30, 0x61	; 97
     a80:	f0 e0       	ldi	r31, 0x00	; 0
     a82:	11 82       	std	Z+1, r1	; 0x01
		   PILOTE_HORLOGE.past_min_alrm= PILOTE_HORLOGE.min+2;
     a84:	82 e0       	ldi	r24, 0x02	; 2
     a86:	80 8b       	std	Z+16, r24	; 0x10
     a88:	13 c1       	rjmp	.+550    	; 0xcb0 <__stack+0x451>
		   		   
	   }
	   else
	   {
		   PILOTE_HORLOGE.min=PILOTE_HORLOGE.alrm_min;
     a8a:	e1 e6       	ldi	r30, 0x61	; 97
     a8c:	f0 e0       	ldi	r31, 0x00	; 0
     a8e:	87 81       	ldd	r24, Z+7	; 0x07
     a90:	81 83       	std	Z+1, r24	; 0x01
		   PILOTE_HORLOGE.past_min_alrm=PILOTE_HORLOGE.alrm_min+1;
     a92:	8f 5f       	subi	r24, 0xFF	; 255
     a94:	80 8b       	std	Z+16, r24	; 0x10
     a96:	0c c1       	rjmp	.+536    	; 0xcb0 <__stack+0x451>
		break;
		
		case PRG_ALRM_HR:
		
		
		if(BOUTONS_PILOTES.boton_top_hd==TRUE)
     a98:	80 91 bb 00 	lds	r24, 0x00BB	; 0x8000bb <BOUTONS_PILOTES+0x8>
     a9c:	81 30       	cpi	r24, 0x01	; 1
     a9e:	81 f4       	brne	.+32     	; 0xac0 <__stack+0x261>
		{
			PILOTE_HORLOGE.alrm_hr++;
     aa0:	80 91 69 00 	lds	r24, 0x0069	; 0x800069 <PILOTE_HORLOGE+0x8>
     aa4:	8f 5f       	subi	r24, 0xFF	; 255
			if(PILOTE_HORLOGE.alrm_hr>23)
     aa6:	88 31       	cpi	r24, 0x18	; 24
     aa8:	18 f4       	brcc	.+6      	; 0xab0 <__stack+0x251>
		case PRG_ALRM_HR:
		
		
		if(BOUTONS_PILOTES.boton_top_hd==TRUE)
		{
			PILOTE_HORLOGE.alrm_hr++;
     aaa:	80 93 69 00 	sts	0x0069, r24	; 0x800069 <PILOTE_HORLOGE+0x8>
     aae:	02 c0       	rjmp	.+4      	; 0xab4 <__stack+0x255>
			if(PILOTE_HORLOGE.alrm_hr>23)
			PILOTE_HORLOGE.alrm_hr=0;
     ab0:	10 92 69 00 	sts	0x0069, r1	; 0x800069 <PILOTE_HORLOGE+0x8>
			
			BOUTONS_PILOTES.boton_top_hd=FALSE;
     ab4:	10 92 bb 00 	sts	0x00BB, r1	; 0x8000bb <BOUTONS_PILOTES+0x8>
			PILOTE_HORLOGE.hour=PILOTE_HORLOGE.alrm_hr;
     ab8:	e1 e6       	ldi	r30, 0x61	; 97
     aba:	f0 e0       	ldi	r31, 0x00	; 0
     abc:	80 85       	ldd	r24, Z+8	; 0x08
     abe:	82 83       	std	Z+2, r24	; 0x02
			
		}
		
		if(BOUTONS_PILOTES.boton_dessous_hd==TRUE)
     ac0:	80 91 bc 00 	lds	r24, 0x00BC	; 0x8000bc <BOUTONS_PILOTES+0x9>
     ac4:	81 30       	cpi	r24, 0x01	; 1
     ac6:	61 f4       	brne	.+24     	; 0xae0 <__stack+0x281>
		{
			PILOTE_HORLOGE.alrm_hr--;
     ac8:	80 91 69 00 	lds	r24, 0x0069	; 0x800069 <PILOTE_HORLOGE+0x8>
     acc:	81 50       	subi	r24, 0x01	; 1
     ace:	18 f0       	brcs	.+6      	; 0xad6 <__stack+0x277>
     ad0:	80 93 69 00 	sts	0x0069, r24	; 0x800069 <PILOTE_HORLOGE+0x8>
     ad4:	03 c0       	rjmp	.+6      	; 0xadc <__stack+0x27d>
			if(PILOTE_HORLOGE.alrm_hr==0xFF)
			PILOTE_HORLOGE.alrm_hr=23;
     ad6:	87 e1       	ldi	r24, 0x17	; 23
     ad8:	80 93 69 00 	sts	0x0069, r24	; 0x800069 <PILOTE_HORLOGE+0x8>
			
			BOUTONS_PILOTES.boton_dessous_hd=FALSE;
     adc:	10 92 bc 00 	sts	0x00BC, r1	; 0x8000bc <BOUTONS_PILOTES+0x9>
			PILOTE_HORLOGE.hour=PILOTE_HORLOGE.alrm_hr;
			
		}
		
		if(PILOTE_HORLOGE.time_toogle==FALSE)
     ae0:	80 91 7e 00 	lds	r24, 0x007E	; 0x80007e <PILOTE_HORLOGE+0x1d>
     ae4:	81 11       	cpse	r24, r1
     ae6:	08 c0       	rjmp	.+16     	; 0xaf8 <__stack+0x299>
		{
			if(PILOTE_HORLOGE.alrm_hr!=11)
     ae8:	80 91 69 00 	lds	r24, 0x0069	; 0x800069 <PILOTE_HORLOGE+0x8>
			PILOTE_HORLOGE.hour=0;
			else
			PILOTE_HORLOGE.hour=0;
     aec:	10 92 63 00 	sts	0x0063, r1	; 0x800063 <PILOTE_HORLOGE+0x2>
			
			PILOTE_HORLOGE.past_hour_alrm= PILOTE_HORLOGE.alrm_hr+2;
     af0:	8e 5f       	subi	r24, 0xFE	; 254
     af2:	80 93 72 00 	sts	0x0072, r24	; 0x800072 <PILOTE_HORLOGE+0x11>
     af6:	dc c0       	rjmp	.+440    	; 0xcb0 <__stack+0x451>
		}
		else
		{
			PILOTE_HORLOGE.hour=PILOTE_HORLOGE.alrm_hr;
     af8:	e1 e6       	ldi	r30, 0x61	; 97
     afa:	f0 e0       	ldi	r31, 0x00	; 0
     afc:	80 85       	ldd	r24, Z+8	; 0x08
     afe:	82 83       	std	Z+2, r24	; 0x02
			PILOTE_HORLOGE.past_hour_alrm=PILOTE_HORLOGE.hour+1;
     b00:	8f 5f       	subi	r24, 0xFF	; 255
     b02:	81 8b       	std	Z+17, r24	; 0x11
     b04:	d5 c0       	rjmp	.+426    	; 0xcb0 <__stack+0x451>
		}
		break;

	case PRG_ALRM_ON_OFF:
	
	if(BOUTONS_PILOTES.boton_top_hd==TRUE)
     b06:	80 91 bb 00 	lds	r24, 0x00BB	; 0x8000bb <BOUTONS_PILOTES+0x8>
     b0a:	81 30       	cpi	r24, 0x01	; 1
     b0c:	59 f4       	brne	.+22     	; 0xb24 <__stack+0x2c5>
	{
		//significa prendido alarma
		
		On_Off_Options.alarm=TRUE;
     b0e:	80 93 b1 00 	sts	0x00B1, r24	; 0x8000b1 <On_Off_Options>
		on_audio_alrm(PILOTE_HORLOGE.Alarm_PlayList);
     b12:	c1 e6       	ldi	r28, 0x61	; 97
     b14:	d0 e0       	ldi	r29, 0x00	; 0
     b16:	8d 89       	ldd	r24, Y+21	; 0x15
     b18:	0e 94 6d 14 	call	0x28da	; 0x28da <on_audio_alrm>
		PILOTE_HORLOGE.alrm_sec=0;
     b1c:	1e 82       	std	Y+6, r1	; 0x06
		
		PILOTE_HORLOGE.sec=PILOTE_HORLOGE.alrm_sec;
     b1e:	18 82       	st	Y, r1
		BOUTONS_PILOTES.boton_top_hd=FALSE;
     b20:	10 92 bb 00 	sts	0x00BB, r1	; 0x8000bb <BOUTONS_PILOTES+0x8>
	}
	
	
	  if(BOUTONS_PILOTES.boton_dessous_hd==TRUE)
     b24:	80 91 bc 00 	lds	r24, 0x00BC	; 0x8000bc <BOUTONS_PILOTES+0x9>
     b28:	81 30       	cpi	r24, 0x01	; 1
     b2a:	51 f4       	brne	.+20     	; 0xb40 <__stack+0x2e1>
	  {
		  //alarma apagada
	       Execute_audio(SOUND_STOP);
     b2c:	8e ef       	ldi	r24, 0xFE	; 254
     b2e:	0e 94 5d 14 	call	0x28ba	; 0x28ba <Execute_audio>
		  PILOTE_HORLOGE.alrm_sec=30;
     b32:	8e e1       	ldi	r24, 0x1E	; 30
     b34:	80 93 67 00 	sts	0x0067, r24	; 0x800067 <PILOTE_HORLOGE+0x6>
		  On_Off_Options.alarm=FALSE;
     b38:	10 92 b1 00 	sts	0x00B1, r1	; 0x8000b1 <On_Off_Options>
		  PILOTE_HORLOGE.sec=PILOTE_HORLOGE.alrm_sec;
		  BOUTONS_PILOTES.boton_dessous_hd=FALSE;
     b3c:	10 92 bc 00 	sts	0x00BC, r1	; 0x8000bc <BOUTONS_PILOTES+0x9>
		  
	  }
	
	
	 if(PILOTE_HORLOGE.time_toogle==FALSE)
     b40:	80 91 7e 00 	lds	r24, 0x007E	; 0x80007e <PILOTE_HORLOGE+0x1d>
     b44:	81 11       	cpse	r24, r1
     b46:	06 c0       	rjmp	.+12     	; 0xb54 <__stack+0x2f5>
	 {
		 PILOTE_HORLOGE.sec=0;//
     b48:	e1 e6       	ldi	r30, 0x61	; 97
     b4a:	f0 e0       	ldi	r31, 0x00	; 0
     b4c:	10 82       	st	Z, r1
		 PILOTE_HORLOGE.past_sec_alrm= PILOTE_HORLOGE.sec+2;
     b4e:	82 e0       	ldi	r24, 0x02	; 2
     b50:	87 87       	std	Z+15, r24	; 0x0f
     b52:	ae c0       	rjmp	.+348    	; 0xcb0 <__stack+0x451>
		 //Acomoda_5x32();
		 
	 }
	 else
	 {
		 PILOTE_HORLOGE.sec=PILOTE_HORLOGE.alrm_sec;
     b54:	e1 e6       	ldi	r30, 0x61	; 97
     b56:	f0 e0       	ldi	r31, 0x00	; 0
     b58:	86 81       	ldd	r24, Z+6	; 0x06
     b5a:	80 83       	st	Z, r24
		 PILOTE_HORLOGE.past_sec_alrm=PILOTE_HORLOGE.sec+1;
     b5c:	8f 5f       	subi	r24, 0xFF	; 255
     b5e:	87 87       	std	Z+15, r24	; 0x0f
     b60:	a7 c0       	rjmp	.+334    	; 0xcb0 <__stack+0x451>
	 }
	 
	 break;
	 
	 case PRG_SONIDOS:
			if(BOUTONS_PILOTES.boton_top_hd==TRUE)
     b62:	80 91 bb 00 	lds	r24, 0x00BB	; 0x8000bb <BOUTONS_PILOTES+0x8>
     b66:	81 30       	cpi	r24, 0x01	; 1
     b68:	81 f4       	brne	.+32     	; 0xb8a <__stack+0x32b>
			{
				    
					BOUTONS_PILOTES.boton_top_hd=FALSE;
     b6a:	10 92 bb 00 	sts	0x00BB, r1	; 0x8000bb <BOUTONS_PILOTES+0x8>
					
					PILOTE_HORLOGE.sound=0; //sonidos prendidos
     b6e:	c1 e6       	ldi	r28, 0x61	; 97
     b70:	d0 e0       	ldi	r29, 0x00	; 0
     b72:	1a 8a       	std	Y+18, r1	; 0x12
					PILOTE_HORLOGE.sec=PILOTE_HORLOGE.sound;
     b74:	18 82       	st	Y, r1
					On_Off_Options.sounds=TRUE;
     b76:	80 93 b2 00 	sts	0x00B2, r24	; 0x8000b2 <On_Off_Options+0x1>
					on_audio(SOUND_FANFARE);
     b7a:	86 e0       	ldi	r24, 0x06	; 6
     b7c:	0e 94 66 14 	call	0x28cc	; 0x28cc <on_audio>
					EEWriteByte(SAVE_SOUND_STATE,PILOTE_HORLOGE.sound);
     b80:	6a 89       	ldd	r22, Y+18	; 0x12
     b82:	85 e0       	ldi	r24, 0x05	; 5
     b84:	90 e0       	ldi	r25, 0x00	; 0
     b86:	0e 94 ad 00 	call	0x15a	; 0x15a <EEWriteByte>
					
					
			}
			
			if(BOUTONS_PILOTES.boton_dessous_hd==TRUE)
     b8a:	80 91 bc 00 	lds	r24, 0x00BC	; 0x8000bc <BOUTONS_PILOTES+0x9>
     b8e:	81 30       	cpi	r24, 0x01	; 1
     b90:	89 f4       	brne	.+34     	; 0xbb4 <__stack+0x355>
			{
					BOUTONS_PILOTES.boton_dessous_hd=FALSE;
     b92:	10 92 bc 00 	sts	0x00BC, r1	; 0x8000bc <BOUTONS_PILOTES+0x9>
					PILOTE_HORLOGE.sound=30; //sonidos apagados
     b96:	c1 e6       	ldi	r28, 0x61	; 97
     b98:	d0 e0       	ldi	r29, 0x00	; 0
     b9a:	8e e1       	ldi	r24, 0x1E	; 30
     b9c:	8a 8b       	std	Y+18, r24	; 0x12
					PILOTE_HORLOGE.sec=PILOTE_HORLOGE.sound;
     b9e:	88 83       	st	Y, r24
					Execute_audio(SOUND_STOP);
     ba0:	8e ef       	ldi	r24, 0xFE	; 254
     ba2:	0e 94 5d 14 	call	0x28ba	; 0x28ba <Execute_audio>
					EEWriteByte(SAVE_SOUND_STATE,PILOTE_HORLOGE.sound);
     ba6:	6a 89       	ldd	r22, Y+18	; 0x12
     ba8:	85 e0       	ldi	r24, 0x05	; 5
     baa:	90 e0       	ldi	r25, 0x00	; 0
     bac:	0e 94 ad 00 	call	0x15a	; 0x15a <EEWriteByte>
					On_Off_Options.sounds=FALSE;
     bb0:	10 92 b2 00 	sts	0x00B2, r1	; 0x8000b2 <On_Off_Options+0x1>
					
					
			}
			
			 if(PILOTE_HORLOGE.time_toogle==FALSE)
     bb4:	80 91 7e 00 	lds	r24, 0x007E	; 0x80007e <PILOTE_HORLOGE+0x1d>
     bb8:	81 11       	cpse	r24, r1
     bba:	06 c0       	rjmp	.+12     	; 0xbc8 <__stack+0x369>
			 {
				 PILOTE_HORLOGE.sec=0;//
     bbc:	e1 e6       	ldi	r30, 0x61	; 97
     bbe:	f0 e0       	ldi	r31, 0x00	; 0
     bc0:	10 82       	st	Z, r1
				 PILOTE_HORLOGE.past_sound= PILOTE_HORLOGE.sec+2;
     bc2:	82 e0       	ldi	r24, 0x02	; 2
     bc4:	86 8b       	std	Z+22, r24	; 0x16
     bc6:	74 c0       	rjmp	.+232    	; 0xcb0 <__stack+0x451>
				 //Acomoda_5x32();
				 
			 }
			 else
			 {
				 PILOTE_HORLOGE.sec=PILOTE_HORLOGE.sound;
     bc8:	e1 e6       	ldi	r30, 0x61	; 97
     bca:	f0 e0       	ldi	r31, 0x00	; 0
     bcc:	82 89       	ldd	r24, Z+18	; 0x12
     bce:	80 83       	st	Z, r24
				 PILOTE_HORLOGE.past_sound=PILOTE_HORLOGE.sound+1;
     bd0:	8f 5f       	subi	r24, 0xFF	; 255
     bd2:	86 8b       	std	Z+22, r24	; 0x16
     bd4:	6d c0       	rjmp	.+218    	; 0xcb0 <__stack+0x451>
	 break;
	 	 
	 case PRG_TIPO_ALARMA:
	 
	 
	 if(BOUTONS_PILOTES.boton_top_hd==TRUE)
     bd6:	80 91 bb 00 	lds	r24, 0x00BB	; 0x8000bb <BOUTONS_PILOTES+0x8>
     bda:	81 30       	cpi	r24, 0x01	; 1
     bdc:	51 f5       	brne	.+84     	; 0xc32 <__stack+0x3d3>
	 {
		 	BOUTONS_PILOTES.boton_top_hd=FALSE;
     bde:	10 92 bb 00 	sts	0x00BB, r1	; 0x8000bb <BOUTONS_PILOTES+0x8>
		 	
		 	PILOTE_HORLOGE.knd_alarm++; //sonidos prendidos
     be2:	e1 e6       	ldi	r30, 0x61	; 97
     be4:	f0 e0       	ldi	r31, 0x00	; 0
     be6:	93 89       	ldd	r25, Z+19	; 0x13
     be8:	89 0f       	add	r24, r25
     bea:	83 8b       	std	Z+19, r24	; 0x13
			 if(PILOTE_HORLOGE.knd_alarm>2)
     bec:	83 30       	cpi	r24, 0x03	; 3
     bee:	20 f0       	brcs	.+8      	; 0xbf8 <__stack+0x399>
			 PILOTE_HORLOGE.knd_alarm=0;
     bf0:	13 8a       	std	Z+19, r1	; 0x13
			 
			 PILOTE_HORLOGE.min=PILOTE_HORLOGE.knd_alarm+1;	
     bf2:	81 e0       	ldi	r24, 0x01	; 1
     bf4:	81 83       	std	Z+1, r24	; 0x01
     bf6:	09 c0       	rjmp	.+18     	; 0xc0a <__stack+0x3ab>
     bf8:	9e 5f       	subi	r25, 0xFE	; 254
     bfa:	90 93 62 00 	sts	0x0062, r25	; 0x800062 <PILOTE_HORLOGE+0x1>
			 		 			 		 	
		 	switch (PILOTE_HORLOGE.knd_alarm)
     bfe:	81 30       	cpi	r24, 0x01	; 1
     c00:	39 f0       	breq	.+14     	; 0xc10 <__stack+0x3b1>
     c02:	18 f0       	brcs	.+6      	; 0xc0a <__stack+0x3ab>
     c04:	82 30       	cpi	r24, 0x02	; 2
     c06:	41 f0       	breq	.+16     	; 0xc18 <__stack+0x3b9>
     c08:	0a c0       	rjmp	.+20     	; 0xc1e <__stack+0x3bf>
			 {
				 case 0:
					PILOTE_HORLOGE.Alarm_PlayList=SOUND_ALARMA;
     c0a:	10 92 76 00 	sts	0x0076, r1	; 0x800076 <PILOTE_HORLOGE+0x15>
				 break;
     c0e:	07 c0       	rjmp	.+14     	; 0xc1e <__stack+0x3bf>
				 case 1:
				PILOTE_HORLOGE.Alarm_PlayList=SOUND_ALARMA2;
     c10:	81 e0       	ldi	r24, 0x01	; 1
     c12:	80 93 76 00 	sts	0x0076, r24	; 0x800076 <PILOTE_HORLOGE+0x15>
				 break;
     c16:	03 c0       	rjmp	.+6      	; 0xc1e <__stack+0x3bf>
				 case 2:
				 PILOTE_HORLOGE.Alarm_PlayList=SOUND_ALARMA3;
     c18:	82 e0       	ldi	r24, 0x02	; 2
     c1a:	80 93 76 00 	sts	0x0076, r24	; 0x800076 <PILOTE_HORLOGE+0x15>
				 break;
			 }
			 
			 
		 	Execute_audio(PILOTE_HORLOGE.Alarm_PlayList);
     c1e:	c1 e6       	ldi	r28, 0x61	; 97
     c20:	d0 e0       	ldi	r29, 0x00	; 0
     c22:	8d 89       	ldd	r24, Y+21	; 0x15
     c24:	0e 94 5d 14 	call	0x28ba	; 0x28ba <Execute_audio>
		 	EEWriteByte(SAVE_KIND_ALARM,PILOTE_HORLOGE.knd_alarm);		 
     c28:	6b 89       	ldd	r22, Y+19	; 0x13
     c2a:	84 e0       	ldi	r24, 0x04	; 4
     c2c:	90 e0       	ldi	r25, 0x00	; 0
     c2e:	0e 94 ad 00 	call	0x15a	; 0x15a <EEWriteByte>
	 }
	 
	 	if(BOUTONS_PILOTES.boton_dessous_hd==TRUE)
     c32:	80 91 bc 00 	lds	r24, 0x00BC	; 0x8000bc <BOUTONS_PILOTES+0x9>
     c36:	81 30       	cpi	r24, 0x01	; 1
     c38:	59 f5       	brne	.+86     	; 0xc90 <__stack+0x431>
	 	{
			 
			 BOUTONS_PILOTES.boton_dessous_hd=FALSE;
     c3a:	10 92 bc 00 	sts	0x00BC, r1	; 0x8000bc <BOUTONS_PILOTES+0x9>
			
			 PILOTE_HORLOGE.knd_alarm--; //sonidos prendidos
     c3e:	e1 e6       	ldi	r30, 0x61	; 97
     c40:	f0 e0       	ldi	r31, 0x00	; 0
     c42:	93 89       	ldd	r25, Z+19	; 0x13
     c44:	8f ef       	ldi	r24, 0xFF	; 255
     c46:	89 0f       	add	r24, r25
     c48:	83 8b       	std	Z+19, r24	; 0x13
			 if(PILOTE_HORLOGE.knd_alarm==0xFF)
     c4a:	8f 3f       	cpi	r24, 0xFF	; 255
     c4c:	29 f4       	brne	.+10     	; 0xc58 <__stack+0x3f9>
			 PILOTE_HORLOGE.knd_alarm=2;
     c4e:	82 e0       	ldi	r24, 0x02	; 2
     c50:	83 8b       	std	Z+19, r24	; 0x13
			 
			 
			 PILOTE_HORLOGE.min=PILOTE_HORLOGE.knd_alarm+1;			 
     c52:	83 e0       	ldi	r24, 0x03	; 3
     c54:	81 83       	std	Z+1, r24	; 0x01
     c56:	0f c0       	rjmp	.+30     	; 0xc76 <__stack+0x417>
     c58:	90 93 62 00 	sts	0x0062, r25	; 0x800062 <PILOTE_HORLOGE+0x1>
			 switch (PILOTE_HORLOGE.knd_alarm)
     c5c:	81 30       	cpi	r24, 0x01	; 1
     c5e:	39 f0       	breq	.+14     	; 0xc6e <__stack+0x40f>
     c60:	18 f0       	brcs	.+6      	; 0xc68 <__stack+0x409>
     c62:	82 30       	cpi	r24, 0x02	; 2
     c64:	59 f4       	brne	.+22     	; 0xc7c <__stack+0x41d>
     c66:	07 c0       	rjmp	.+14     	; 0xc76 <__stack+0x417>
			 {
				 case 0:
				 PILOTE_HORLOGE.Alarm_PlayList=SOUND_ALARMA;
     c68:	10 92 76 00 	sts	0x0076, r1	; 0x800076 <PILOTE_HORLOGE+0x15>
				 break;
     c6c:	07 c0       	rjmp	.+14     	; 0xc7c <__stack+0x41d>
				 case 1:
				 PILOTE_HORLOGE.Alarm_PlayList=SOUND_ALARMA2;
     c6e:	81 e0       	ldi	r24, 0x01	; 1
     c70:	80 93 76 00 	sts	0x0076, r24	; 0x800076 <PILOTE_HORLOGE+0x15>
				 break;
     c74:	03 c0       	rjmp	.+6      	; 0xc7c <__stack+0x41d>
				 case 2:
				 PILOTE_HORLOGE.Alarm_PlayList=SOUND_ALARMA3;
     c76:	82 e0       	ldi	r24, 0x02	; 2
     c78:	80 93 76 00 	sts	0x0076, r24	; 0x800076 <PILOTE_HORLOGE+0x15>
				 break;
				 
			 }
			 
			  Execute_audio(PILOTE_HORLOGE.Alarm_PlayList);
     c7c:	c1 e6       	ldi	r28, 0x61	; 97
     c7e:	d0 e0       	ldi	r29, 0x00	; 0
     c80:	8d 89       	ldd	r24, Y+21	; 0x15
     c82:	0e 94 5d 14 	call	0x28ba	; 0x28ba <Execute_audio>
			 EEWriteByte(SAVE_KIND_ALARM,PILOTE_HORLOGE.knd_alarm);
     c86:	6b 89       	ldd	r22, Y+19	; 0x13
     c88:	84 e0       	ldi	r24, 0x04	; 4
     c8a:	90 e0       	ldi	r25, 0x00	; 0
     c8c:	0e 94 ad 00 	call	0x15a	; 0x15a <EEWriteByte>
			 
		 }
	  if(PILOTE_HORLOGE.time_toogle==FALSE)
     c90:	80 91 7e 00 	lds	r24, 0x007E	; 0x80007e <PILOTE_HORLOGE+0x1d>
     c94:	81 11       	cpse	r24, r1
     c96:	06 c0       	rjmp	.+12     	; 0xca4 <__stack+0x445>
	  {
		  PILOTE_HORLOGE.min=0;//
     c98:	e1 e6       	ldi	r30, 0x61	; 97
     c9a:	f0 e0       	ldi	r31, 0x00	; 0
     c9c:	11 82       	std	Z+1, r1	; 0x01
		  PILOTE_HORLOGE.past_knd_alarm =PILOTE_HORLOGE.min+2;
     c9e:	82 e0       	ldi	r24, 0x02	; 2
     ca0:	87 8b       	std	Z+23, r24	; 0x17
     ca2:	06 c0       	rjmp	.+12     	; 0xcb0 <__stack+0x451>
		 
		  
	  }
	  else
	  {
		  PILOTE_HORLOGE.min=PILOTE_HORLOGE.knd_alarm+1;
     ca4:	e1 e6       	ldi	r30, 0x61	; 97
     ca6:	f0 e0       	ldi	r31, 0x00	; 0
     ca8:	83 89       	ldd	r24, Z+19	; 0x13
     caa:	8f 5f       	subi	r24, 0xFF	; 255
     cac:	81 83       	std	Z+1, r24	; 0x01
		  PILOTE_HORLOGE.past_knd_alarm=PILOTE_HORLOGE.knd_alarm+1;
     cae:	87 8b       	std	Z+23, r24	; 0x17
	 
	
}

	
     cb0:	df 91       	pop	r29
     cb2:	cf 91       	pop	r28
     cb4:	08 95       	ret

00000cb6 <__vector_10>:
#include "Plays_Externs.h"
#include "WT588D.h"


ISR(TIMER0_COMP_vect)
	{		
     cb6:	1f 92       	push	r1
     cb8:	0f 92       	push	r0
     cba:	0f b6       	in	r0, 0x3f	; 63
     cbc:	0f 92       	push	r0
     cbe:	11 24       	eor	r1, r1
     cc0:	2f 93       	push	r18
     cc2:	3f 93       	push	r19
     cc4:	8f 93       	push	r24
     cc6:	9f 93       	push	r25
     cc8:	af 93       	push	r26
     cca:	bf 93       	push	r27
     ccc:	ef 93       	push	r30
     cce:	ff 93       	push	r31
		cli();		
     cd0:	f8 94       	cli
			PILOTE_HORLOGE.take_time1++;
     cd2:	80 91 7b 00 	lds	r24, 0x007B	; 0x80007b <PILOTE_HORLOGE+0x1a>
     cd6:	8f 5f       	subi	r24, 0xFF	; 255
			if(PILOTE_HORLOGE.take_time1>100)
     cd8:	85 36       	cpi	r24, 0x65	; 101
     cda:	18 f4       	brcc	.+6      	; 0xce2 <__vector_10+0x2c>


ISR(TIMER0_COMP_vect)
	{		
		cli();		
			PILOTE_HORLOGE.take_time1++;
     cdc:	80 93 7b 00 	sts	0x007B, r24	; 0x80007b <PILOTE_HORLOGE+0x1a>
     ce0:	1a c0       	rjmp	.+52     	; 0xd16 <__vector_10+0x60>
			if(PILOTE_HORLOGE.take_time1>100)
			{
				
				
				PILOTE_HORLOGE.take_time1=0;
     ce2:	e1 e6       	ldi	r30, 0x61	; 97
     ce4:	f0 e0       	ldi	r31, 0x00	; 0
     ce6:	12 8e       	std	Z+26, r1	; 0x1a
				switch (PILOTE_HORLOGE.time_toogle)
     ce8:	85 8d       	ldd	r24, Z+29	; 0x1d
     cea:	88 23       	and	r24, r24
     cec:	61 f0       	breq	.+24     	; 0xd06 <__vector_10+0x50>
     cee:	81 30       	cpi	r24, 0x01	; 1
     cf0:	91 f4       	brne	.+36     	; 0xd16 <__vector_10+0x60>
				{
					case TRUE:
					
					PILOTE_HORLOGE.time_toogle=FALSE;
     cf2:	10 92 7e 00 	sts	0x007E, r1	; 0x80007e <PILOTE_HORLOGE+0x1d>
					if(MODE_DEPLOYE.selectionner_mode>NO_PRG)
     cf6:	80 91 b0 00 	lds	r24, 0x00B0	; 0x8000b0 <MODE_DEPLOYE>
     cfa:	88 23       	and	r24, r24
     cfc:	61 f0       	breq	.+24     	; 0xd16 <__vector_10+0x60>
					PILOTE_SPI.checa_parpadea_12AM=TRUE;
     cfe:	81 e0       	ldi	r24, 0x01	; 1
     d00:	80 93 aa 00 	sts	0x00AA, r24	; 0x8000aa <PILOTE_SPI+0x2a>
     d04:	08 c0       	rjmp	.+16     	; 0xd16 <__vector_10+0x60>
					
					break;
					
					case FALSE:
					PILOTE_HORLOGE.time_toogle=TRUE;
     d06:	81 e0       	ldi	r24, 0x01	; 1
     d08:	80 93 7e 00 	sts	0x007E, r24	; 0x80007e <PILOTE_HORLOGE+0x1d>
					if(MODE_DEPLOYE.selectionner_mode>NO_PRG)
     d0c:	80 91 b0 00 	lds	r24, 0x00B0	; 0x8000b0 <MODE_DEPLOYE>
     d10:	81 11       	cpse	r24, r1
					PILOTE_SPI.checa_parpadea_12AM=FALSE;
     d12:	10 92 aa 00 	sts	0x00AA, r1	; 0x8000aa <PILOTE_SPI+0x2a>
					break;
				}
			}
			
			PILOTE_SPI.barrer=FALSE;   
     d16:	10 92 a3 00 	sts	0x00A3, r1	; 0x8000a3 <PILOTE_SPI+0x23>
			
			
			 // toggles the led
		
			
		PILOTE_HORLOGE.take_time2_Triforce++;
     d1a:	80 91 7c 00 	lds	r24, 0x007C	; 0x80007c <PILOTE_HORLOGE+0x1b>
     d1e:	90 91 7d 00 	lds	r25, 0x007D	; 0x80007d <PILOTE_HORLOGE+0x1c>
     d22:	01 96       	adiw	r24, 0x01	; 1
		if(PILOTE_HORLOGE.take_time2_Triforce>259)
     d24:	84 30       	cpi	r24, 0x04	; 4
     d26:	21 e0       	ldi	r18, 0x01	; 1
     d28:	92 07       	cpc	r25, r18
     d2a:	28 f4       	brcc	.+10     	; 0xd36 <__vector_10+0x80>
			
			
			 // toggles the led
		
			
		PILOTE_HORLOGE.take_time2_Triforce++;
     d2c:	90 93 7d 00 	sts	0x007D, r25	; 0x80007d <PILOTE_HORLOGE+0x1c>
     d30:	80 93 7c 00 	sts	0x007C, r24	; 0x80007c <PILOTE_HORLOGE+0x1b>
     d34:	09 c0       	rjmp	.+18     	; 0xd48 <__vector_10+0x92>
		if(PILOTE_HORLOGE.take_time2_Triforce>259)
		{		
		PILOTE_HORLOGE.take_time2_Triforce=0;
     d36:	10 92 7d 00 	sts	0x007D, r1	; 0x80007d <PILOTE_HORLOGE+0x1c>
     d3a:	10 92 7c 00 	sts	0x007C, r1	; 0x80007c <PILOTE_HORLOGE+0x1b>
		
		Drive_ornament.execute_mov++;		
     d3e:	e6 ed       	ldi	r30, 0xD6	; 214
     d40:	f0 e0       	ldi	r31, 0x00	; 0
     d42:	85 81       	ldd	r24, Z+5	; 0x05
     d44:	8f 5f       	subi	r24, 0xFF	; 255
     d46:	85 83       	std	Z+5, r24	; 0x05
			
			//   enviar_nuevo=TRUE;
	//	}//end if
	
	
	if (KIND_DISPLAY.show_date!=CLOCK)
     d48:	80 91 ab 00 	lds	r24, 0x00AB	; 0x8000ab <KIND_DISPLAY>
     d4c:	88 23       	and	r24, r24
     d4e:	11 f1       	breq	.+68     	; 0xd94 <__vector_10+0xde>
	{
		KIND_DISPLAY.show_count++;
     d50:	eb ea       	ldi	r30, 0xAB	; 171
     d52:	f0 e0       	ldi	r31, 0x00	; 0
     d54:	21 81       	ldd	r18, Z+1	; 0x01
     d56:	32 81       	ldd	r19, Z+2	; 0x02
     d58:	2f 5f       	subi	r18, 0xFF	; 255
     d5a:	3f 4f       	sbci	r19, 0xFF	; 255
     d5c:	32 83       	std	Z+2, r19	; 0x02
     d5e:	21 83       	std	Z+1, r18	; 0x01
		
		
			
			if(KIND_DISPLAY.show_date==CALENDAR)
     d60:	81 30       	cpi	r24, 0x01	; 1
     d62:	39 f4       	brne	.+14     	; 0xd72 <__vector_10+0xbc>
			{
				
				if(KIND_DISPLAY.show_count>33000)
     d64:	29 3e       	cpi	r18, 0xE9	; 233
     d66:	30 48       	sbci	r19, 0x80	; 128
     d68:	a8 f0       	brcs	.+42     	; 0xd94 <__vector_10+0xde>
				{				
					
					KIND_DISPLAY.show_date=CLOCK;
     d6a:	10 82       	st	Z, r1
					KIND_DISPLAY.show_count=0;
     d6c:	12 82       	std	Z+2, r1	; 0x02
     d6e:	11 82       	std	Z+1, r1	; 0x01
     d70:	11 c0       	rjmp	.+34     	; 0xd94 <__vector_10+0xde>
		
			}
		
		
			
			if(KIND_DISPLAY.show_date==ALARM)
     d72:	82 30       	cpi	r24, 0x02	; 2
     d74:	79 f4       	brne	.+30     	; 0xd94 <__vector_10+0xde>
			{
				
				if(KIND_DISPLAY.show_count>4500)
     d76:	25 39       	cpi	r18, 0x95	; 149
     d78:	31 41       	sbci	r19, 0x11	; 17
     d7a:	60 f0       	brcs	.+24     	; 0xd94 <__vector_10+0xde>
				{				
				KIND_DISPLAY.show_date=CLOCK;
     d7c:	ab ea       	ldi	r26, 0xAB	; 171
     d7e:	b0 e0       	ldi	r27, 0x00	; 0
     d80:	1c 92       	st	X, r1
				PILOTE_HORLOGE.lee_RTC=TRUE;
     d82:	e1 e6       	ldi	r30, 0x61	; 97
     d84:	f0 e0       	ldi	r31, 0x00	; 0
     d86:	81 e0       	ldi	r24, 0x01	; 1
     d88:	81 8f       	std	Z+25, r24	; 0x19
				KIND_DISPLAY.show_count=0;
     d8a:	12 96       	adiw	r26, 0x02	; 2
     d8c:	1c 92       	st	X, r1
     d8e:	1e 92       	st	-X, r1
     d90:	11 97       	sbiw	r26, 0x01	; 1
				PILOTE_HORLOGE.cortar_sonido=TRUE;				
     d92:	86 8f       	std	Z+30, r24	; 0x1e
				}
			}
	}
	
	TCNT0 = 0;   // reset counter
     d94:	12 be       	out	0x32, r1	; 50
	sei();
     d96:	78 94       	sei
	
	
	}
     d98:	ff 91       	pop	r31
     d9a:	ef 91       	pop	r30
     d9c:	bf 91       	pop	r27
     d9e:	af 91       	pop	r26
     da0:	9f 91       	pop	r25
     da2:	8f 91       	pop	r24
     da4:	3f 91       	pop	r19
     da6:	2f 91       	pop	r18
     da8:	0f 90       	pop	r0
     daa:	0f be       	out	0x3f, r0	; 63
     dac:	0f 90       	pop	r0
     dae:	1f 90       	pop	r1
     db0:	18 95       	reti

00000db2 <__vector_4>:

		
ISR(TIMER2_COMP_vect)
{	
     db2:	1f 92       	push	r1
     db4:	0f 92       	push	r0
     db6:	0f b6       	in	r0, 0x3f	; 63
     db8:	0f 92       	push	r0
     dba:	11 24       	eor	r1, r1
     dbc:	8f 93       	push	r24
     dbe:	ef 93       	push	r30
     dc0:	ff 93       	push	r31
	
	
// cada vuelta es de 100uf
cli();
     dc2:	f8 94       	cli
 if(Drive_WT58.suma_ms==TRUE)	
     dc4:	80 91 cf 00 	lds	r24, 0x00CF	; 0x8000cf <Drive_WT58+0x7>
     dc8:	81 30       	cpi	r24, 0x01	; 1
     dca:	51 f4       	brne	.+20     	; 0xde0 <__vector_4+0x2e>
 {
	if(Drive_WT58.contador_us>10)
     dcc:	80 91 d0 00 	lds	r24, 0x00D0	; 0x8000d0 <Drive_WT58+0x8>
     dd0:	8b 30       	cpi	r24, 0x0B	; 11
     dd2:	30 f0       	brcs	.+12     	; 0xde0 <__vector_4+0x2e>
	{
		Drive_WT58.contador_ms++;
     dd4:	e8 ec       	ldi	r30, 0xC8	; 200
     dd6:	f0 e0       	ldi	r31, 0x00	; 0
     dd8:	86 81       	ldd	r24, Z+6	; 0x06
     dda:	8f 5f       	subi	r24, 0xFF	; 255
     ddc:	86 83       	std	Z+6, r24	; 0x06
		Drive_WT58.contador_us=0;
     dde:	10 86       	std	Z+8, r1	; 0x08
	}
 }

	
	Drive_WT58.contador_us++;
     de0:	e8 ec       	ldi	r30, 0xC8	; 200
     de2:	f0 e0       	ldi	r31, 0x00	; 0
     de4:	80 85       	ldd	r24, Z+8	; 0x08
     de6:	8f 5f       	subi	r24, 0xFF	; 255
     de8:	80 87       	std	Z+8, r24	; 0x08

	
	sei();
*/	
	
	TCNT2=0;
     dea:	14 bc       	out	0x24, r1	; 36
	
	
		
	
	
}
     dec:	ff 91       	pop	r31
     dee:	ef 91       	pop	r30
     df0:	8f 91       	pop	r24
     df2:	0f 90       	pop	r0
     df4:	0f be       	out	0x3f, r0	; 63
     df6:	0f 90       	pop	r0
     df8:	1f 90       	pop	r1
     dfa:	18 95       	reti

00000dfc <Modulo_Brillo>:
	

void Modulo_Brillo(void)
{
if(ESTADO.ON_OFF==TRUE)  
     dfc:	80 91 c7 00 	lds	r24, 0x00C7	; 0x8000c7 <ESTADO>
     e00:	81 30       	cpi	r24, 0x01	; 1
     e02:	69 f5       	brne	.+90     	; 0xe5e <Modulo_Brillo+0x62>
{
  if(BOUTONS_PILOTES.boton_briller!=BOUTONS_PILOTES.briller_change)
     e04:	e3 eb       	ldi	r30, 0xB3	; 179
     e06:	f0 e0       	ldi	r31, 0x00	; 0
     e08:	22 85       	ldd	r18, Z+10	; 0x0a
     e0a:	33 85       	ldd	r19, Z+11	; 0x0b
     e0c:	84 85       	ldd	r24, Z+12	; 0x0c
     e0e:	95 85       	ldd	r25, Z+13	; 0x0d
     e10:	28 17       	cp	r18, r24
     e12:	39 07       	cpc	r19, r25
     e14:	29 f1       	breq	.+74     	; 0xe60 <Modulo_Brillo+0x64>
  {
	  if(BOUTONS_PILOTES.briller_change>BOUTONS_PILOTES.boton_briller)
     e16:	24 85       	ldd	r18, Z+12	; 0x0c
     e18:	35 85       	ldd	r19, Z+13	; 0x0d
     e1a:	82 85       	ldd	r24, Z+10	; 0x0a
     e1c:	93 85       	ldd	r25, Z+11	; 0x0b
     e1e:	82 17       	cp	r24, r18
     e20:	93 07       	cpc	r25, r19
     e22:	50 f4       	brcc	.+20     	; 0xe38 <Modulo_Brillo+0x3c>
	  {
		  BOUTONS_PILOTES.boton_briller++;
     e24:	82 85       	ldd	r24, Z+10	; 0x0a
     e26:	93 85       	ldd	r25, Z+11	; 0x0b
     e28:	01 96       	adiw	r24, 0x01	; 1
     e2a:	93 87       	std	Z+11, r25	; 0x0b
     e2c:	82 87       	std	Z+10, r24	; 0x0a
	      OCR1A=BOUTONS_PILOTES.boton_briller;
     e2e:	82 85       	ldd	r24, Z+10	; 0x0a
     e30:	93 85       	ldd	r25, Z+11	; 0x0b
     e32:	9b bd       	out	0x2b, r25	; 43
     e34:	8a bd       	out	0x2a, r24	; 42
     e36:	08 95       	ret
	  }
	  else
	  {
		  if(BOUTONS_PILOTES.briller_change<BOUTONS_PILOTES.boton_briller)
     e38:	e3 eb       	ldi	r30, 0xB3	; 179
     e3a:	f0 e0       	ldi	r31, 0x00	; 0
     e3c:	24 85       	ldd	r18, Z+12	; 0x0c
     e3e:	35 85       	ldd	r19, Z+13	; 0x0d
     e40:	82 85       	ldd	r24, Z+10	; 0x0a
     e42:	93 85       	ldd	r25, Z+11	; 0x0b
     e44:	28 17       	cp	r18, r24
     e46:	39 07       	cpc	r19, r25
     e48:	58 f4       	brcc	.+22     	; 0xe60 <Modulo_Brillo+0x64>
		  {
		  BOUTONS_PILOTES.boton_briller--;
     e4a:	82 85       	ldd	r24, Z+10	; 0x0a
     e4c:	93 85       	ldd	r25, Z+11	; 0x0b
     e4e:	01 97       	sbiw	r24, 0x01	; 1
     e50:	93 87       	std	Z+11, r25	; 0x0b
     e52:	82 87       	std	Z+10, r24	; 0x0a
		  OCR1A=BOUTONS_PILOTES.boton_briller;
     e54:	82 85       	ldd	r24, Z+10	; 0x0a
     e56:	93 85       	ldd	r25, Z+11	; 0x0b
     e58:	9b bd       	out	0x2b, r25	; 43
     e5a:	8a bd       	out	0x2a, r24	; 42
     e5c:	08 95       	ret
  }// endif bouton_pilotes
}//end if estado on off

  
  else
  	PORTD|= (1<<PD5);
     e5e:	95 9a       	sbi	0x12, 5	; 18
     e60:	08 95       	ret

00000e62 <HC595Latch>:

void HC595Latch(void)
{
	
	//Pulse the Store Clock
	HC595_PORT|=(1<<HC595_ST_CP_POS);//HIGH
     e62:	d9 9a       	sbi	0x1b, 1	; 27
    can be achieved.
*/
void
_delay_loop_1(uint8_t __count)
{
	__asm__ volatile (
     e64:	81 e0       	ldi	r24, 0x01	; 1
     e66:	98 2f       	mov	r25, r24
     e68:	9a 95       	dec	r25
     e6a:	f1 f7       	brne	.-4      	; 0xe68 <HC595Latch+0x6>
	_delay_loop_1(1);

	HC595_PORT&=(~(1<<HC595_ST_CP_POS));//LOW
     e6c:	d9 98       	cbi	0x1b, 1	; 27
     e6e:	8a 95       	dec	r24
     e70:	f1 f7       	brne	.-4      	; 0xe6e <HC595Latch+0xc>
     e72:	08 95       	ret

00000e74 <DecimalToBCD>:

}

uint8_t DecimalToBCD (uint8_t decimalByte)
{
	return (((decimalByte / 10) << 4) | (decimalByte % 10));
     e74:	9d ec       	ldi	r25, 0xCD	; 205
     e76:	89 9f       	mul	r24, r25
     e78:	91 2d       	mov	r25, r1
     e7a:	11 24       	eor	r1, r1
     e7c:	96 95       	lsr	r25
     e7e:	96 95       	lsr	r25
     e80:	96 95       	lsr	r25
     e82:	20 e1       	ldi	r18, 0x10	; 16
     e84:	92 9f       	mul	r25, r18
     e86:	a0 01       	movw	r20, r0
     e88:	11 24       	eor	r1, r1
     e8a:	99 0f       	add	r25, r25
     e8c:	29 2f       	mov	r18, r25
     e8e:	22 0f       	add	r18, r18
     e90:	22 0f       	add	r18, r18
     e92:	92 0f       	add	r25, r18
     e94:	89 1b       	sub	r24, r25
}
     e96:	84 2b       	or	r24, r20
     e98:	08 95       	ret

00000e9a <BCDaDecimal>:

unsigned char BCDaDecimal(unsigned char bcdByte)
{
	return (((bcdByte & 0xF0) >> 4)*10) + (bcdByte & 0x0F);
     e9a:	98 2f       	mov	r25, r24
     e9c:	92 95       	swap	r25
     e9e:	9f 70       	andi	r25, 0x0F	; 15
     ea0:	99 0f       	add	r25, r25
     ea2:	29 2f       	mov	r18, r25
     ea4:	22 0f       	add	r18, r18
     ea6:	22 0f       	add	r18, r18
     ea8:	92 0f       	add	r25, r18
     eaa:	8f 70       	andi	r24, 0x0F	; 15
}
     eac:	89 0f       	add	r24, r25
     eae:	08 95       	ret

00000eb0 <LeeRTC>:


void LeeRTC(void)
{
     eb0:	cf 93       	push	r28
     eb2:	df 93       	push	r29
  
  if(MODE_DEPLOYE.selectionner_mode==NO_PRG)
     eb4:	80 91 b0 00 	lds	r24, 0x00B0	; 0x8000b0 <MODE_DEPLOYE>
     eb8:	81 11       	cpse	r24, r1
     eba:	35 c0       	rjmp	.+106    	; 0xf26 <LeeRTC+0x76>
{
  if(PILOTE_HORLOGE.lee_RTC==TRUE)	
     ebc:	80 91 7a 00 	lds	r24, 0x007A	; 0x80007a <PILOTE_HORLOGE+0x19>
     ec0:	81 30       	cpi	r24, 0x01	; 1
     ec2:	89 f5       	brne	.+98     	; 0xf26 <LeeRTC+0x76>
  	{
		  
	PILOTE_HORLOGE.sec  = DS1307_get(SEC);
     ec4:	80 e0       	ldi	r24, 0x00	; 0
     ec6:	0e 94 fe 13 	call	0x27fc	; 0x27fc <DS1307_get>
	PILOTE_HORLOGE.sec  = BCDaDecimal(PILOTE_HORLOGE.sec);
     eca:	0e 94 4d 07 	call	0xe9a	; 0xe9a <BCDaDecimal>
     ece:	c1 e6       	ldi	r28, 0x61	; 97
     ed0:	d0 e0       	ldi	r29, 0x00	; 0
     ed2:	88 83       	st	Y, r24
	
	PILOTE_HORLOGE.min  = DS1307_get(MIN);
     ed4:	81 e0       	ldi	r24, 0x01	; 1
     ed6:	0e 94 fe 13 	call	0x27fc	; 0x27fc <DS1307_get>
	PILOTE_HORLOGE.min  = BCDaDecimal(PILOTE_HORLOGE.min);
     eda:	0e 94 4d 07 	call	0xe9a	; 0xe9a <BCDaDecimal>
     ede:	89 83       	std	Y+1, r24	; 0x01
	PILOTE_HORLOGE.hour = DS1307_get(HOUR);
     ee0:	82 e0       	ldi	r24, 0x02	; 2
     ee2:	0e 94 fe 13 	call	0x27fc	; 0x27fc <DS1307_get>
	PILOTE_HORLOGE.hour = BCDaDecimal(PILOTE_HORLOGE.hour);
     ee6:	0e 94 4d 07 	call	0xe9a	; 0xe9a <BCDaDecimal>
     eea:	8a 83       	std	Y+2, r24	; 0x02
	
	
	if((KIND_DISPLAY.show_date==CALENDAR )|| (MODE_DEPLOYE.selectionner_mode==PRG_MTH) || (MODE_DEPLOYE.selectionner_mode==PRG_DAY) || (MODE_DEPLOYE.selectionner_mode==PRG_YR) )
     eec:	80 91 ab 00 	lds	r24, 0x00AB	; 0x8000ab <KIND_DISPLAY>
     ef0:	81 30       	cpi	r24, 0x01	; 1
     ef2:	29 f0       	breq	.+10     	; 0xefe <LeeRTC+0x4e>
     ef4:	80 91 b0 00 	lds	r24, 0x00B0	; 0x8000b0 <MODE_DEPLOYE>
     ef8:	84 50       	subi	r24, 0x04	; 4
     efa:	83 30       	cpi	r24, 0x03	; 3
     efc:	a0 f4       	brcc	.+40     	; 0xf26 <LeeRTC+0x76>
	  {	  
	  
	PILOTE_HORLOGE.month= DS1307_get(MONTH);
     efe:	85 e0       	ldi	r24, 0x05	; 5
     f00:	0e 94 fe 13 	call	0x27fc	; 0x27fc <DS1307_get>
	PILOTE_HORLOGE.month= BCDaDecimal(PILOTE_HORLOGE.month);
     f04:	0e 94 4d 07 	call	0xe9a	; 0xe9a <BCDaDecimal>
     f08:	c1 e6       	ldi	r28, 0x61	; 97
     f0a:	d0 e0       	ldi	r29, 0x00	; 0
     f0c:	8c 83       	std	Y+4, r24	; 0x04
	PILOTE_HORLOGE.date = DS1307_get(DATE);//dia numero
     f0e:	84 e0       	ldi	r24, 0x04	; 4
     f10:	0e 94 fe 13 	call	0x27fc	; 0x27fc <DS1307_get>
    PILOTE_HORLOGE.date = BCDaDecimal(PILOTE_HORLOGE.date);
     f14:	0e 94 4d 07 	call	0xe9a	; 0xe9a <BCDaDecimal>
     f18:	8b 83       	std	Y+3, r24	; 0x03
	PILOTE_HORLOGE.year = DS1307_get(YEAR);
     f1a:	86 e0       	ldi	r24, 0x06	; 6
     f1c:	0e 94 fe 13 	call	0x27fc	; 0x27fc <DS1307_get>
	PILOTE_HORLOGE.year = BCDaDecimal(PILOTE_HORLOGE.year);
     f20:	0e 94 4d 07 	call	0xe9a	; 0xe9a <BCDaDecimal>
     f24:	8d 83       	std	Y+5, r24	; 0x05
	
   }
	  
	
}
}
     f26:	df 91       	pop	r29
     f28:	cf 91       	pop	r28
     f2a:	08 95       	ret

00000f2c <Acomoda_5x32>:


void Acomoda_5x32(void)
{
     f2c:	cf 92       	push	r12
     f2e:	df 92       	push	r13
     f30:	ef 92       	push	r14
     f32:	ff 92       	push	r15
     f34:	0f 93       	push	r16
     f36:	1f 93       	push	r17
uint32_t aux_rev_sec; 
	/******************************************************************************************/
	/* Aqui se Acomoda OUT_BARRIDO(0);                                                       */

	PILOTE_SPI.temp_32_SH = PILOTE_HORLOGE.hour;
     f38:	80 91 63 00 	lds	r24, 0x0063	; 0x800063 <PILOTE_HORLOGE+0x2>
     f3c:	48 2f       	mov	r20, r24
     f3e:	50 e0       	ldi	r21, 0x00	; 0
     f40:	60 e0       	ldi	r22, 0x00	; 0
     f42:	70 e0       	ldi	r23, 0x00	; 0
	if(PILOTE_SPI.temp_32_SH!=0){
     f44:	41 15       	cp	r20, r1
     f46:	51 05       	cpc	r21, r1
     f48:	61 05       	cpc	r22, r1
     f4a:	71 05       	cpc	r23, r1
     f4c:	09 f4       	brne	.+2      	; 0xf50 <Acomoda_5x32+0x24>
     f4e:	4c c0       	rjmp	.+152    	; 0xfe8 <Acomoda_5x32+0xbc>
		
		if(PILOTE_SPI.temp_32_SH<12){
     f50:	4c 30       	cpi	r20, 0x0C	; 12
     f52:	51 05       	cpc	r21, r1
     f54:	61 05       	cpc	r22, r1
     f56:	71 05       	cpc	r23, r1
     f58:	d8 f4       	brcc	.+54     	; 0xf90 <Acomoda_5x32+0x64>
		//	if(PILOTE_SPI.OUT_BARRIDO[0]!= CLR_UP)
			PILOTE_SPI.OUT_BARRIDO[0]=CLR_UP; //pone en ff
			
			PILOTE_SPI.tmp_acmd=24-PILOTE_SPI.temp_32_SH;
			PILOTE_SPI.OUT_BARRIDO[0]= PILOTE_SPI.OUT_BARRIDO[0]>>(PILOTE_SPI.tmp_acmd-1);
			PILOTE_SPI.OUT_BARRIDO[0]&=   0XFFFFFE00;
     f5a:	80 95       	com	r24
     f5c:	88 5e       	subi	r24, 0xE8	; 232
     f5e:	4f ef       	ldi	r20, 0xFF	; 255
     f60:	5f ef       	ldi	r21, 0xFF	; 255
     f62:	ba 01       	movw	r22, r20
     f64:	6a 01       	movw	r12, r20
     f66:	7b 01       	movw	r14, r22
     f68:	04 c0       	rjmp	.+8      	; 0xf72 <Acomoda_5x32+0x46>
     f6a:	f6 94       	lsr	r15
     f6c:	e7 94       	ror	r14
     f6e:	d7 94       	ror	r13
     f70:	c7 94       	ror	r12
     f72:	8a 95       	dec	r24
     f74:	d2 f7       	brpl	.-12     	; 0xf6a <Acomoda_5x32+0x3e>
     f76:	d7 01       	movw	r26, r14
     f78:	c6 01       	movw	r24, r12
     f7a:	88 27       	eor	r24, r24
     f7c:	9e 7f       	andi	r25, 0xFE	; 254
     f7e:	80 93 81 00 	sts	0x0081, r24	; 0x800081 <PILOTE_SPI+0x1>
     f82:	90 93 82 00 	sts	0x0082, r25	; 0x800082 <PILOTE_SPI+0x2>
     f86:	a0 93 83 00 	sts	0x0083, r26	; 0x800083 <PILOTE_SPI+0x3>
     f8a:	b0 93 84 00 	sts	0x0084, r27	; 0x800084 <PILOTE_SPI+0x4>
     f8e:	69 c0       	rjmp	.+210    	; 0x1062 <Acomoda_5x32+0x136>
		}
		else
		{
			if(PILOTE_SPI.temp_32_SH != 12)
     f90:	4c 30       	cpi	r20, 0x0C	; 12
     f92:	51 05       	cpc	r21, r1
     f94:	61 05       	cpc	r22, r1
     f96:	71 05       	cpc	r23, r1
     f98:	d1 f0       	breq	.+52     	; 0xfce <Acomoda_5x32+0xa2>
			{
			//	if(PILOTE_SPI.OUT_BARRIDO[0]!= CLR_UP)
				PILOTE_SPI.OUT_BARRIDO[0]=CLR_UP; //pone en ff				
				PILOTE_SPI.OUT_BARRIDO[0]= PILOTE_SPI.OUT_BARRIDO[0]>>(32-(PILOTE_SPI.temp_32_SH+9));// 8 de los minutos +1 de desfase				
				PILOTE_SPI.OUT_BARRIDO[0] &= 0xFFE00000;
     f9a:	27 e1       	ldi	r18, 0x17	; 23
     f9c:	30 e0       	ldi	r19, 0x00	; 0
     f9e:	28 1b       	sub	r18, r24
     fa0:	31 09       	sbc	r19, r1
     fa2:	8f ef       	ldi	r24, 0xFF	; 255
     fa4:	9f ef       	ldi	r25, 0xFF	; 255
     fa6:	dc 01       	movw	r26, r24
     fa8:	04 c0       	rjmp	.+8      	; 0xfb2 <Acomoda_5x32+0x86>
     faa:	b6 95       	lsr	r27
     fac:	a7 95       	ror	r26
     fae:	97 95       	ror	r25
     fb0:	87 95       	ror	r24
     fb2:	2a 95       	dec	r18
     fb4:	d2 f7       	brpl	.-12     	; 0xfaa <Acomoda_5x32+0x7e>
     fb6:	88 27       	eor	r24, r24
     fb8:	99 27       	eor	r25, r25
     fba:	a0 7e       	andi	r26, 0xE0	; 224
     fbc:	80 93 81 00 	sts	0x0081, r24	; 0x800081 <PILOTE_SPI+0x1>
     fc0:	90 93 82 00 	sts	0x0082, r25	; 0x800082 <PILOTE_SPI+0x2>
     fc4:	a0 93 83 00 	sts	0x0083, r26	; 0x800083 <PILOTE_SPI+0x3>
     fc8:	b0 93 84 00 	sts	0x0084, r27	; 0x800084 <PILOTE_SPI+0x4>
     fcc:	4a c0       	rjmp	.+148    	; 0x1062 <Acomoda_5x32+0x136>
			}
			else//if(temp_32_SH=12)
			{
				PILOTE_SPI.OUT_BARRIDO[0]=0;				
				PILOTE_SPI.OUT_BARRIDO[0]|= 0x100000; //posicion de 12 PM
     fce:	80 e0       	ldi	r24, 0x00	; 0
     fd0:	90 e0       	ldi	r25, 0x00	; 0
     fd2:	a0 e1       	ldi	r26, 0x10	; 16
     fd4:	b0 e0       	ldi	r27, 0x00	; 0
     fd6:	80 93 81 00 	sts	0x0081, r24	; 0x800081 <PILOTE_SPI+0x1>
     fda:	90 93 82 00 	sts	0x0082, r25	; 0x800082 <PILOTE_SPI+0x2>
     fde:	a0 93 83 00 	sts	0x0083, r26	; 0x800083 <PILOTE_SPI+0x3>
     fe2:	b0 93 84 00 	sts	0x0084, r27	; 0x800084 <PILOTE_SPI+0x4>
     fe6:	3d c0       	rjmp	.+122    	; 0x1062 <Acomoda_5x32+0x136>
	}
	else {		
		if(PILOTE_SPI.temp_32_SH==0)
		{
			
          if(MODE_DEPLOYE.selectionner_mode==NO_PRG)
     fe8:	80 91 b0 00 	lds	r24, 0x00B0	; 0x8000b0 <MODE_DEPLOYE>
     fec:	81 11       	cpse	r24, r1
     fee:	0d c0       	rjmp	.+26     	; 0x100a <Acomoda_5x32+0xde>
		  {
			PILOTE_SPI.OUT_BARRIDO[0]=0;
			PILOTE_SPI.OUT_BARRIDO[0]|= 0x100;//	Posicion de 12AM
     ff0:	80 e0       	ldi	r24, 0x00	; 0
     ff2:	91 e0       	ldi	r25, 0x01	; 1
     ff4:	a0 e0       	ldi	r26, 0x00	; 0
     ff6:	b0 e0       	ldi	r27, 0x00	; 0
     ff8:	80 93 81 00 	sts	0x0081, r24	; 0x800081 <PILOTE_SPI+0x1>
     ffc:	90 93 82 00 	sts	0x0082, r25	; 0x800082 <PILOTE_SPI+0x2>
    1000:	a0 93 83 00 	sts	0x0083, r26	; 0x800083 <PILOTE_SPI+0x3>
    1004:	b0 93 84 00 	sts	0x0084, r27	; 0x800084 <PILOTE_SPI+0x4>
    1008:	2c c0       	rjmp	.+88     	; 0x1062 <Acomoda_5x32+0x136>
		  }
		  else
		  {
			  
			  if((MODE_DEPLOYE.selectionner_mode==PRG_HR) || (MODE_DEPLOYE.selectionner_mode==PRG_ALRM_HR)||(MODE_DEPLOYE.selectionner_mode==PRG_VOLUMEN))
    100a:	83 30       	cpi	r24, 0x03	; 3
    100c:	21 f0       	breq	.+8      	; 0x1016 <Acomoda_5x32+0xea>
    100e:	8a 30       	cpi	r24, 0x0A	; 10
    1010:	11 f0       	breq	.+4      	; 0x1016 <Acomoda_5x32+0xea>
    1012:	8f 30       	cpi	r24, 0x0F	; 15
    1014:	d1 f4       	brne	.+52     	; 0x104a <Acomoda_5x32+0x11e>
			  {
			    if(PILOTE_SPI.checa_parpadea_12AM)
    1016:	80 91 aa 00 	lds	r24, 0x00AA	; 0x8000aa <PILOTE_SPI+0x2a>
    101a:	88 23       	and	r24, r24
    101c:	49 f0       	breq	.+18     	; 0x1030 <Acomoda_5x32+0x104>
				{				
				
						PILOTE_SPI.OUT_BARRIDO[0]=0;  
    101e:	10 92 81 00 	sts	0x0081, r1	; 0x800081 <PILOTE_SPI+0x1>
    1022:	10 92 82 00 	sts	0x0082, r1	; 0x800082 <PILOTE_SPI+0x2>
    1026:	10 92 83 00 	sts	0x0083, r1	; 0x800083 <PILOTE_SPI+0x3>
    102a:	10 92 84 00 	sts	0x0084, r1	; 0x800084 <PILOTE_SPI+0x4>
    102e:	19 c0       	rjmp	.+50     	; 0x1062 <Acomoda_5x32+0x136>
				}
				else
				{
					PILOTE_SPI.OUT_BARRIDO[0]=0;
					PILOTE_SPI.OUT_BARRIDO[0]|= 0x100;
    1030:	80 e0       	ldi	r24, 0x00	; 0
    1032:	91 e0       	ldi	r25, 0x01	; 1
    1034:	a0 e0       	ldi	r26, 0x00	; 0
    1036:	b0 e0       	ldi	r27, 0x00	; 0
    1038:	80 93 81 00 	sts	0x0081, r24	; 0x800081 <PILOTE_SPI+0x1>
    103c:	90 93 82 00 	sts	0x0082, r25	; 0x800082 <PILOTE_SPI+0x2>
    1040:	a0 93 83 00 	sts	0x0083, r26	; 0x800083 <PILOTE_SPI+0x3>
    1044:	b0 93 84 00 	sts	0x0084, r27	; 0x800084 <PILOTE_SPI+0x4>
    1048:	0c c0       	rjmp	.+24     	; 0x1062 <Acomoda_5x32+0x136>
			
			  }
			  else// if mode_deploye <> prg any hour
			  {
				  PILOTE_SPI.OUT_BARRIDO[0]=0;
				  PILOTE_SPI.OUT_BARRIDO[0]|= 0x100;
    104a:	80 e0       	ldi	r24, 0x00	; 0
    104c:	91 e0       	ldi	r25, 0x01	; 1
    104e:	a0 e0       	ldi	r26, 0x00	; 0
    1050:	b0 e0       	ldi	r27, 0x00	; 0
    1052:	80 93 81 00 	sts	0x0081, r24	; 0x800081 <PILOTE_SPI+0x1>
    1056:	90 93 82 00 	sts	0x0082, r25	; 0x800082 <PILOTE_SPI+0x2>
    105a:	a0 93 83 00 	sts	0x0083, r26	; 0x800083 <PILOTE_SPI+0x3>
    105e:	b0 93 84 00 	sts	0x0084, r27	; 0x800084 <PILOTE_SPI+0x4>
		  }
		}
	}
	
	//***********minutos
	PILOTE_SPI.tmp_acmd=PILOTE_HORLOGE.min;
    1062:	80 91 62 00 	lds	r24, 0x0062	; 0x800062 <PILOTE_HORLOGE+0x1>
	PILOTE_SPI.temp_32_SH=PILOTE_HORLOGE.min;
    1066:	48 2f       	mov	r20, r24
    1068:	50 e0       	ldi	r21, 0x00	; 0
    106a:	60 e0       	ldi	r22, 0x00	; 0
    106c:	70 e0       	ldi	r23, 0x00	; 0
    106e:	40 93 a6 00 	sts	0x00A6, r20	; 0x8000a6 <PILOTE_SPI+0x26>
    1072:	50 93 a7 00 	sts	0x00A7, r21	; 0x8000a7 <PILOTE_SPI+0x27>
    1076:	60 93 a8 00 	sts	0x00A8, r22	; 0x8000a8 <PILOTE_SPI+0x28>
    107a:	70 93 a9 00 	sts	0x00A9, r23	; 0x8000a9 <PILOTE_SPI+0x29>
	if(PILOTE_SPI.tmp_acmd==CERO)
    107e:	81 11       	cpse	r24, r1
    1080:	59 c2       	rjmp	.+1202   	; 0x1534 <Acomoda_5x32+0x608>
	{
		PILOTE_SPI.temp_32_SH  =  1;
    1082:	41 e0       	ldi	r20, 0x01	; 1
    1084:	50 e0       	ldi	r21, 0x00	; 0
    1086:	60 e0       	ldi	r22, 0x00	; 0
    1088:	70 e0       	ldi	r23, 0x00	; 0
    108a:	40 93 a6 00 	sts	0x00A6, r20	; 0x8000a6 <PILOTE_SPI+0x26>
    108e:	50 93 a7 00 	sts	0x00A7, r21	; 0x8000a7 <PILOTE_SPI+0x27>
    1092:	60 93 a8 00 	sts	0x00A8, r22	; 0x8000a8 <PILOTE_SPI+0x28>
    1096:	70 93 a9 00 	sts	0x00A9, r23	; 0x8000a9 <PILOTE_SPI+0x29>
    109a:	26 c0       	rjmp	.+76     	; 0x10e8 <Acomoda_5x32+0x1bc>
		
		//if(PILOTE_SPI.temp_32_SH!= CLR_UP)
		PILOTE_SPI.temp_32_SH = CLR_UP;
		
		PILOTE_SPI.tmp_acmd= NUM_SALIDAS-PILOTE_SPI.tmp_acmd;
		PILOTE_SPI.temp_32_SH= PILOTE_SPI.temp_32_SH>>(PILOTE_SPI.tmp_acmd);
    109c:	93 e5       	ldi	r25, 0x53	; 83
    109e:	98 1b       	sub	r25, r24
    10a0:	4f ef       	ldi	r20, 0xFF	; 255
    10a2:	5f ef       	ldi	r21, 0xFF	; 255
    10a4:	ba 01       	movw	r22, r20
    10a6:	04 c0       	rjmp	.+8      	; 0x10b0 <Acomoda_5x32+0x184>
    10a8:	76 95       	lsr	r23
    10aa:	67 95       	ror	r22
    10ac:	57 95       	ror	r21
    10ae:	47 95       	ror	r20
    10b0:	9a 95       	dec	r25
    10b2:	d2 f7       	brpl	.-12     	; 0x10a8 <Acomoda_5x32+0x17c>
    10b4:	e0 e8       	ldi	r30, 0x80	; 128
    10b6:	f0 e0       	ldi	r31, 0x00	; 0
    10b8:	46 a3       	std	Z+38, r20	; 0x26
    10ba:	57 a3       	std	Z+39, r21	; 0x27
    10bc:	60 a7       	std	Z+40, r22	; 0x28
    10be:	71 a7       	std	Z+41, r23	; 0x29
		PILOTE_SPI.OUT_BARRIDO[0]|= PILOTE_SPI.temp_32_SH;        ///////////////////////////////REV//////////////////		
    10c0:	01 81       	ldd	r16, Z+1	; 0x01
    10c2:	12 81       	ldd	r17, Z+2	; 0x02
    10c4:	23 81       	ldd	r18, Z+3	; 0x03
    10c6:	34 81       	ldd	r19, Z+4	; 0x04
    10c8:	40 2b       	or	r20, r16
    10ca:	51 2b       	or	r21, r17
    10cc:	62 2b       	or	r22, r18
    10ce:	73 2b       	or	r23, r19
    10d0:	41 83       	std	Z+1, r20	; 0x01
    10d2:	52 83       	std	Z+2, r21	; 0x02
    10d4:	63 83       	std	Z+3, r22	; 0x03
    10d6:	74 83       	std	Z+4, r23	; 0x04
	{
		PILOTE_SPI.tmp_acmd = PILOTE_HORLOGE.min;

	}
	//******salida  1=51 segundo   32 = 19      ******************//
	if(PILOTE_SPI.tmp_acmd >= 20)
    10d8:	84 31       	cpi	r24, 0x14	; 20
    10da:	50 f1       	brcs	.+84     	; 0x1130 <Acomoda_5x32+0x204>
	{
		PILOTE_SPI.tmp_acmd = (PILOTE_SPI.tmp_acmd-19);
    10dc:	9d ee       	ldi	r25, 0xED	; 237
    10de:	98 0f       	add	r25, r24
    10e0:	90 93 a5 00 	sts	0x00A5, r25	; 0x8000a5 <PILOTE_SPI+0x25>

		//if(PILOTE_SPI.OUT_BARRIDO[1]!=CLR_UP)
		PILOTE_SPI.OUT_BARRIDO[1]=CLR_UP;

		if(PILOTE_SPI.tmp_acmd==0x29)  ///MIN = 60
    10e4:	99 32       	cpi	r25, 0x29	; 41
    10e6:	49 f4       	brne	.+18     	; 0x10fa <Acomoda_5x32+0x1ce>
		{
			PILOTE_SPI.OUT_BARRIDO[1]&= 0;
    10e8:	10 92 85 00 	sts	0x0085, r1	; 0x800085 <PILOTE_SPI+0x5>
    10ec:	10 92 86 00 	sts	0x0086, r1	; 0x800086 <PILOTE_SPI+0x6>
    10f0:	10 92 87 00 	sts	0x0087, r1	; 0x800087 <PILOTE_SPI+0x7>
    10f4:	10 92 88 00 	sts	0x0088, r1	; 0x800088 <PILOTE_SPI+0x8>
    10f8:	2f c0       	rjmp	.+94     	; 0x1158 <Acomoda_5x32+0x22c>
		}
		else{
			if(PILOTE_SPI.tmp_acmd>32)
    10fa:	91 32       	cpi	r25, 0x21	; 33
    10fc:	18 f0       	brcs	.+6      	; 0x1104 <Acomoda_5x32+0x1d8>
			PILOTE_SPI.tmp_acmd=32;
    10fe:	90 e2       	ldi	r25, 0x20	; 32
    1100:	90 93 a5 00 	sts	0x00A5, r25	; 0x8000a5 <PILOTE_SPI+0x25>
			
			PILOTE_SPI.OUT_BARRIDO[1]= PILOTE_SPI.OUT_BARRIDO[1]>>(32-PILOTE_SPI.tmp_acmd);
    1104:	e0 e8       	ldi	r30, 0x80	; 128
    1106:	f0 e0       	ldi	r31, 0x00	; 0
    1108:	95 a1       	ldd	r25, Z+37	; 0x25
    110a:	20 e2       	ldi	r18, 0x20	; 32
    110c:	30 e0       	ldi	r19, 0x00	; 0
    110e:	29 1b       	sub	r18, r25
    1110:	31 09       	sbc	r19, r1
    1112:	4f ef       	ldi	r20, 0xFF	; 255
    1114:	5f ef       	ldi	r21, 0xFF	; 255
    1116:	ba 01       	movw	r22, r20
    1118:	04 c0       	rjmp	.+8      	; 0x1122 <Acomoda_5x32+0x1f6>
    111a:	76 95       	lsr	r23
    111c:	67 95       	ror	r22
    111e:	57 95       	ror	r21
    1120:	47 95       	ror	r20
    1122:	2a 95       	dec	r18
    1124:	d2 f7       	brpl	.-12     	; 0x111a <Acomoda_5x32+0x1ee>
    1126:	45 83       	std	Z+5, r20	; 0x05
    1128:	56 83       	std	Z+6, r21	; 0x06
    112a:	67 83       	std	Z+7, r22	; 0x07
    112c:	70 87       	std	Z+8, r23	; 0x08
    112e:	14 c0       	rjmp	.+40     	; 0x1158 <Acomoda_5x32+0x22c>
		}

	}
	else
	{
		if(PILOTE_SPI.OUT_BARRIDO[1]!=0)
    1130:	40 91 85 00 	lds	r20, 0x0085	; 0x800085 <PILOTE_SPI+0x5>
    1134:	50 91 86 00 	lds	r21, 0x0086	; 0x800086 <PILOTE_SPI+0x6>
    1138:	60 91 87 00 	lds	r22, 0x0087	; 0x800087 <PILOTE_SPI+0x7>
    113c:	70 91 88 00 	lds	r23, 0x0088	; 0x800088 <PILOTE_SPI+0x8>
    1140:	45 2b       	or	r20, r21
    1142:	46 2b       	or	r20, r22
    1144:	47 2b       	or	r20, r23
    1146:	41 f0       	breq	.+16     	; 0x1158 <Acomoda_5x32+0x22c>
		PILOTE_SPI.OUT_BARRIDO[1]=0;
    1148:	10 92 85 00 	sts	0x0085, r1	; 0x800085 <PILOTE_SPI+0x5>
    114c:	10 92 86 00 	sts	0x0086, r1	; 0x800086 <PILOTE_SPI+0x6>
    1150:	10 92 87 00 	sts	0x0087, r1	; 0x800087 <PILOTE_SPI+0x7>
    1154:	10 92 88 00 	sts	0x0088, r1	; 0x800088 <PILOTE_SPI+0x8>
	}
	/******************************************************************************/
	/**   OUTBARRIDO[2]                                            ************/
	PILOTE_SPI.tmp_acmd=PILOTE_HORLOGE.min;

	if(PILOTE_SPI.tmp_acmd==0)
    1158:	88 23       	and	r24, r24
    115a:	d9 f0       	breq	.+54     	; 0x1192 <Acomoda_5x32+0x266>
	 PILOTE_SPI.tmp_acmd=NUM_MIN;
	
	if(PILOTE_SPI.tmp_acmd<=18)
    115c:	83 31       	cpi	r24, 0x13	; 19
    115e:	b8 f4       	brcc	.+46     	; 0x118e <Acomoda_5x32+0x262>
		//if(PILOTE_SPI.OUT_BARRIDO[2]!=CLR_UP)
		PILOTE_SPI.OUT_BARRIDO[2]= CLR_UP;
		
		PILOTE_SPI.tmp_acmd = 19-PILOTE_SPI.tmp_acmd;
		PILOTE_SPI.OUT_BARRIDO[2] = PILOTE_SPI.OUT_BARRIDO[2]>>PILOTE_SPI.tmp_acmd;
		PILOTE_SPI.OUT_BARRIDO[2]&=  0xFFFFE000;
    1160:	23 e1       	ldi	r18, 0x13	; 19
    1162:	28 1b       	sub	r18, r24
    1164:	8f ef       	ldi	r24, 0xFF	; 255
    1166:	9f ef       	ldi	r25, 0xFF	; 255
    1168:	dc 01       	movw	r26, r24
    116a:	04 c0       	rjmp	.+8      	; 0x1174 <Acomoda_5x32+0x248>
    116c:	b6 95       	lsr	r27
    116e:	a7 95       	ror	r26
    1170:	97 95       	ror	r25
    1172:	87 95       	ror	r24
    1174:	2a 95       	dec	r18
    1176:	d2 f7       	brpl	.-12     	; 0x116c <Acomoda_5x32+0x240>
    1178:	88 27       	eor	r24, r24
    117a:	90 7e       	andi	r25, 0xE0	; 224
    117c:	80 93 89 00 	sts	0x0089, r24	; 0x800089 <PILOTE_SPI+0x9>
    1180:	90 93 8a 00 	sts	0x008A, r25	; 0x80008a <PILOTE_SPI+0xa>
    1184:	a0 93 8b 00 	sts	0x008B, r26	; 0x80008b <PILOTE_SPI+0xb>
    1188:	b0 93 8c 00 	sts	0x008C, r27	; 0x80008c <PILOTE_SPI+0xc>
    118c:	38 c0       	rjmp	.+112    	; 0x11fe <Acomoda_5x32+0x2d2>
	}
	else
	{
		
		if(PILOTE_SPI.tmp_acmd==60)
    118e:	8c 33       	cpi	r24, 0x3C	; 60
    1190:	51 f5       	brne	.+84     	; 0x11e6 <Acomoda_5x32+0x2ba>
		{
			if((MODE_DEPLOYE.selectionner_mode==PRG_MIN)||(MODE_DEPLOYE.selectionner_mode==PRG_ALRM_MIN)||(MODE_DEPLOYE.selectionner_mode== PRG_TIPO_ALARMA))
    1192:	80 91 b0 00 	lds	r24, 0x00B0	; 0x8000b0 <MODE_DEPLOYE>
    1196:	82 30       	cpi	r24, 0x02	; 2
    1198:	21 f0       	breq	.+8      	; 0x11a2 <Acomoda_5x32+0x276>
    119a:	89 30       	cpi	r24, 0x09	; 9
    119c:	11 f0       	breq	.+4      	; 0x11a2 <Acomoda_5x32+0x276>
    119e:	8e 30       	cpi	r24, 0x0E	; 14
    11a0:	a9 f4       	brne	.+42     	; 0x11cc <Acomoda_5x32+0x2a0>
			{
		
		  PILOTE_SPI.OUT_BARRIDO[2] = PILOTE_SPI.checa_parpadea_12AM ? 0 : 0x1000;
    11a2:	80 91 aa 00 	lds	r24, 0x00AA	; 0x8000aa <PILOTE_SPI+0x2a>
    11a6:	81 11       	cpse	r24, r1
    11a8:	05 c0       	rjmp	.+10     	; 0x11b4 <Acomoda_5x32+0x288>
    11aa:	80 e0       	ldi	r24, 0x00	; 0
    11ac:	90 e1       	ldi	r25, 0x10	; 16
    11ae:	a0 e0       	ldi	r26, 0x00	; 0
    11b0:	b0 e0       	ldi	r27, 0x00	; 0
    11b2:	03 c0       	rjmp	.+6      	; 0x11ba <Acomoda_5x32+0x28e>
    11b4:	80 e0       	ldi	r24, 0x00	; 0
    11b6:	90 e0       	ldi	r25, 0x00	; 0
    11b8:	dc 01       	movw	r26, r24
    11ba:	80 93 89 00 	sts	0x0089, r24	; 0x800089 <PILOTE_SPI+0x9>
    11be:	90 93 8a 00 	sts	0x008A, r25	; 0x80008a <PILOTE_SPI+0xa>
    11c2:	a0 93 8b 00 	sts	0x008B, r26	; 0x80008b <PILOTE_SPI+0xb>
    11c6:	b0 93 8c 00 	sts	0x008C, r27	; 0x80008c <PILOTE_SPI+0xc>
    11ca:	19 c0       	rjmp	.+50     	; 0x11fe <Acomoda_5x32+0x2d2>
				
			}
			else
			{
				PILOTE_SPI.OUT_BARRIDO[2]=CLR_UP;
				PILOTE_SPI.OUT_BARRIDO[2] &=  0x1000;
    11cc:	80 e0       	ldi	r24, 0x00	; 0
    11ce:	90 e1       	ldi	r25, 0x10	; 16
    11d0:	a0 e0       	ldi	r26, 0x00	; 0
    11d2:	b0 e0       	ldi	r27, 0x00	; 0
    11d4:	80 93 89 00 	sts	0x0089, r24	; 0x800089 <PILOTE_SPI+0x9>
    11d8:	90 93 8a 00 	sts	0x008A, r25	; 0x80008a <PILOTE_SPI+0xa>
    11dc:	a0 93 8b 00 	sts	0x008B, r26	; 0x80008b <PILOTE_SPI+0xb>
    11e0:	b0 93 8c 00 	sts	0x008C, r27	; 0x80008c <PILOTE_SPI+0xc>
    11e4:	0c c0       	rjmp	.+24     	; 0x11fe <Acomoda_5x32+0x2d2>
			}
		}
		else
		PILOTE_SPI.OUT_BARRIDO[2]=0xFFFFE000;
    11e6:	80 e0       	ldi	r24, 0x00	; 0
    11e8:	90 ee       	ldi	r25, 0xE0	; 224
    11ea:	af ef       	ldi	r26, 0xFF	; 255
    11ec:	bf ef       	ldi	r27, 0xFF	; 255
    11ee:	80 93 89 00 	sts	0x0089, r24	; 0x800089 <PILOTE_SPI+0x9>
    11f2:	90 93 8a 00 	sts	0x008A, r25	; 0x80008a <PILOTE_SPI+0xa>
    11f6:	a0 93 8b 00 	sts	0x008B, r26	; 0x80008b <PILOTE_SPI+0xb>
    11fa:	b0 93 8c 00 	sts	0x008C, r27	; 0x80008c <PILOTE_SPI+0xc>
	}
	
	/*******segundos***********************/////
	PILOTE_SPI.tmp_acmd =  PILOTE_HORLOGE.sec;
    11fe:	80 91 61 00 	lds	r24, 0x0061	; 0x800061 <PILOTE_HORLOGE>
if(PILOTE_SPI.tmp_acmd==0)
    1202:	81 11       	cpse	r24, r1
    1204:	9e c1       	rjmp	.+828    	; 0x1542 <Acomoda_5x32+0x616>
{	
	if((MODE_DEPLOYE.selectionner_mode==PRG_SEG) || (MODE_DEPLOYE.selectionner_mode==PRG_ALRM_ON_OFF) || (MODE_DEPLOYE.selectionner_mode==PRG_SONIDOS))
    1206:	90 91 b0 00 	lds	r25, 0x00B0	; 0x8000b0 <MODE_DEPLOYE>
    120a:	91 30       	cpi	r25, 0x01	; 1
    120c:	21 f0       	breq	.+8      	; 0x1216 <Acomoda_5x32+0x2ea>
    120e:	9b 30       	cpi	r25, 0x0B	; 11
    1210:	11 f0       	breq	.+4      	; 0x1216 <Acomoda_5x32+0x2ea>
    1212:	9d 30       	cpi	r25, 0x0D	; 13
    1214:	41 f4       	brne	.+16     	; 0x1226 <Acomoda_5x32+0x2fa>
	{
		if(PILOTE_SPI.checa_parpadea_12AM)
    1216:	90 91 aa 00 	lds	r25, 0x00AA	; 0x8000aa <PILOTE_SPI+0x2a>
    121a:	91 11       	cpse	r25, r1
    121c:	58 c0       	rjmp	.+176    	; 0x12ce <Acomoda_5x32+0x3a2>
		{
			PILOTE_SPI.tmp_acmd=0;
		}	
	else      // if(PILOTE_SPI.tmp_acmd==0)
	
	PILOTE_SPI.tmp_acmd=60;
    121e:	9c e3       	ldi	r25, 0x3C	; 60
    1220:	90 93 a5 00 	sts	0x00A5, r25	; 0x8000a5 <PILOTE_SPI+0x25>
    1224:	8b c1       	rjmp	.+790    	; 0x153c <Acomoda_5x32+0x610>
	
	}
	else
	PILOTE_SPI.tmp_acmd=60;
    1226:	9c e3       	ldi	r25, 0x3C	; 60
    1228:	90 93 a5 00 	sts	0x00A5, r25	; 0x8000a5 <PILOTE_SPI+0x25>
    122c:	87 c1       	rjmp	.+782    	; 0x153c <Acomoda_5x32+0x610>
}
	
	if(PILOTE_SPI.tmp_acmd>47)
    122e:	98 2f       	mov	r25, r24
	{
		PILOTE_SPI.tmp_acmd=PILOTE_SPI.tmp_acmd-47;
    1230:	9f 52       	subi	r25, 0x2F	; 47
		//if(PILOTE_SPI.temp_32_SH!=CLR_UP)
		PILOTE_SPI.temp_32_SH=CLR_UP;
    1232:	4f ef       	ldi	r20, 0xFF	; 255
    1234:	5f ef       	ldi	r21, 0xFF	; 255
    1236:	ba 01       	movw	r22, r20
    1238:	40 93 a6 00 	sts	0x00A6, r20	; 0x8000a6 <PILOTE_SPI+0x26>
    123c:	50 93 a7 00 	sts	0x00A7, r21	; 0x8000a7 <PILOTE_SPI+0x27>
    1240:	60 93 a8 00 	sts	0x00A8, r22	; 0x8000a8 <PILOTE_SPI+0x28>
    1244:	70 93 a9 00 	sts	0x00A9, r23	; 0x8000a9 <PILOTE_SPI+0x29>
		
		if(PILOTE_SPI.tmp_acmd==13){// es igual a 60
    1248:	9d 30       	cpi	r25, 0x0D	; 13
    124a:	69 f4       	brne	.+26     	; 0x1266 <Acomoda_5x32+0x33a>
			 PILOTE_SPI.OUT_BARRIDO[2]|=0xFFF;
    124c:	e0 e8       	ldi	r30, 0x80	; 128
    124e:	f0 e0       	ldi	r31, 0x00	; 0
    1250:	41 85       	ldd	r20, Z+9	; 0x09
    1252:	52 85       	ldd	r21, Z+10	; 0x0a
    1254:	63 85       	ldd	r22, Z+11	; 0x0b
    1256:	74 85       	ldd	r23, Z+12	; 0x0c
    1258:	4f 6f       	ori	r20, 0xFF	; 255
    125a:	5f 60       	ori	r21, 0x0F	; 15
    125c:	41 87       	std	Z+9, r20	; 0x09
    125e:	52 87       	std	Z+10, r21	; 0x0a
    1260:	63 87       	std	Z+11, r22	; 0x0b
    1262:	74 87       	std	Z+12, r23	; 0x0c
    1264:	32 c0       	rjmp	.+100    	; 0x12ca <Acomoda_5x32+0x39e>
	}
		else// es igual a 60
		{
			PILOTE_SPI.temp_32_SH= PILOTE_SPI.temp_32_SH>>(32-PILOTE_SPI.tmp_acmd);
    1266:	20 e2       	ldi	r18, 0x20	; 32
    1268:	30 e0       	ldi	r19, 0x00	; 0
    126a:	29 1b       	sub	r18, r25
    126c:	31 09       	sbc	r19, r1
    126e:	4f ef       	ldi	r20, 0xFF	; 255
    1270:	5f ef       	ldi	r21, 0xFF	; 255
    1272:	ba 01       	movw	r22, r20
    1274:	6a 01       	movw	r12, r20
    1276:	7b 01       	movw	r14, r22
    1278:	04 c0       	rjmp	.+8      	; 0x1282 <Acomoda_5x32+0x356>
    127a:	f6 94       	lsr	r15
    127c:	e7 94       	ror	r14
    127e:	d7 94       	ror	r13
    1280:	c7 94       	ror	r12
    1282:	2a 95       	dec	r18
    1284:	d2 f7       	brpl	.-12     	; 0x127a <Acomoda_5x32+0x34e>
    1286:	97 01       	movw	r18, r14
    1288:	86 01       	movw	r16, r12
    128a:	e0 e8       	ldi	r30, 0x80	; 128
    128c:	f0 e0       	ldi	r31, 0x00	; 0
    128e:	c6 a2       	std	Z+38, r12	; 0x26
    1290:	d7 a2       	std	Z+39, r13	; 0x27
    1292:	e0 a6       	std	Z+40, r14	; 0x28
    1294:	f1 a6       	std	Z+41, r15	; 0x29
			//PILOTE_SPI.OUT_BARRIDO[2]=0;
			PILOTE_SPI.OUT_BARRIDO[2]|=PILOTE_SPI.temp_32_SH;
    1296:	41 85       	ldd	r20, Z+9	; 0x09
    1298:	52 85       	ldd	r21, Z+10	; 0x0a
    129a:	63 85       	ldd	r22, Z+11	; 0x0b
    129c:	74 85       	ldd	r23, Z+12	; 0x0c
    129e:	4c 29       	or	r20, r12
    12a0:	5d 29       	or	r21, r13
    12a2:	6e 29       	or	r22, r14
    12a4:	7f 29       	or	r23, r15
    12a6:	41 87       	std	Z+9, r20	; 0x09
    12a8:	52 87       	std	Z+10, r21	; 0x0a
    12aa:	63 87       	std	Z+11, r22	; 0x0b
    12ac:	74 87       	std	Z+12, r23	; 0x0c
			
			if((MODE_DEPLOYE.selectionner_mode==PRG_SEG) || (MODE_DEPLOYE.selectionner_mode==PRG_ALRM_ON_OFF)|| (MODE_DEPLOYE.selectionner_mode==PRG_SONIDOS))
    12ae:	90 91 b0 00 	lds	r25, 0x00B0	; 0x8000b0 <MODE_DEPLOYE>
    12b2:	91 30       	cpi	r25, 0x01	; 1
    12b4:	29 f0       	breq	.+10     	; 0x12c0 <Acomoda_5x32+0x394>
    12b6:	9b 30       	cpi	r25, 0x0B	; 11
    12b8:	19 f0       	breq	.+6      	; 0x12c0 <Acomoda_5x32+0x394>
    12ba:	9d 30       	cpi	r25, 0x0D	; 13
    12bc:	09 f0       	breq	.+2      	; 0x12c0 <Acomoda_5x32+0x394>
    12be:	5d c1       	rjmp	.+698    	; 0x157a <Acomoda_5x32+0x64e>
			{
				aux_rev_sec = PILOTE_SPI.checa_parpadea_12AM ? 0xFFFFE000 :  0X1FFF;
    12c0:	90 91 aa 00 	lds	r25, 0x00AA	; 0x8000aa <PILOTE_SPI+0x2a>
    12c4:	91 11       	cpse	r25, r1
    12c6:	41 c1       	rjmp	.+642    	; 0x154a <Acomoda_5x32+0x61e>
    12c8:	4b c1       	rjmp	.+662    	; 0x1560 <Acomoda_5x32+0x634>
		}
	}
	/******************************************************************************/
	/**   OUTBARRIDO[3]                                                ************/

	if(PILOTE_HORLOGE.sec==0)
    12ca:	81 11       	cpse	r24, r1
    12cc:	14 c0       	rjmp	.+40     	; 0x12f6 <Acomoda_5x32+0x3ca>
	{
		if((MODE_DEPLOYE.selectionner_mode==PRG_SEG) || (MODE_DEPLOYE.selectionner_mode==PRG_ALRM_ON_OFF)|| (MODE_DEPLOYE.selectionner_mode==PRG_SONIDOS))
    12ce:	80 91 b0 00 	lds	r24, 0x00B0	; 0x8000b0 <MODE_DEPLOYE>
    12d2:	81 30       	cpi	r24, 0x01	; 1
    12d4:	21 f0       	breq	.+8      	; 0x12de <Acomoda_5x32+0x3b2>
    12d6:	8b 30       	cpi	r24, 0x0B	; 11
    12d8:	11 f0       	breq	.+4      	; 0x12de <Acomoda_5x32+0x3b2>
    12da:	8d 30       	cpi	r24, 0x0D	; 13
    12dc:	41 f4       	brne	.+16     	; 0x12ee <Acomoda_5x32+0x3c2>
		{		
			if(PILOTE_SPI.checa_parpadea_12AM)			
    12de:	80 91 aa 00 	lds	r24, 0x00AA	; 0x8000aa <PILOTE_SPI+0x2a>
    12e2:	81 11       	cpse	r24, r1
    12e4:	47 c0       	rjmp	.+142    	; 0x1374 <Acomoda_5x32+0x448>
			{
				PILOTE_SPI.tmp_acmd=0;
			}
			else
			 PILOTE_SPI.tmp_acmd = NUM_MIN-1;
    12e6:	8b e3       	ldi	r24, 0x3B	; 59
    12e8:	80 93 a5 00 	sts	0x00A5, r24	; 0x8000a5 <PILOTE_SPI+0x25>
    12ec:	4a c1       	rjmp	.+660    	; 0x1582 <Acomoda_5x32+0x656>
					
	    }
		else
		PILOTE_SPI.tmp_acmd = NUM_MIN-1;
    12ee:	8b e3       	ldi	r24, 0x3B	; 59
    12f0:	80 93 a5 00 	sts	0x00A5, r24	; 0x8000a5 <PILOTE_SPI+0x25>
    12f4:	46 c1       	rjmp	.+652    	; 0x1582 <Acomoda_5x32+0x656>
	else
	{
		PILOTE_SPI.tmp_acmd=PILOTE_HORLOGE.sec;
	}

	if(PILOTE_SPI.tmp_acmd>15)
    12f6:	80 31       	cpi	r24, 0x10	; 16
    12f8:	e8 f1       	brcs	.+122    	; 0x1374 <Acomoda_5x32+0x448>
	{

		PILOTE_SPI.tmp_acmd=PILOTE_SPI.tmp_acmd-15;
    12fa:	8f 50       	subi	r24, 0x0F	; 15
    12fc:	80 93 a5 00 	sts	0x00A5, r24	; 0x8000a5 <PILOTE_SPI+0x25>
		//if(PILOTE_SPI.OUT_BARRIDO[3]!= CLR_UP)
		PILOTE_SPI.OUT_BARRIDO[3]=  CLR_UP;
		
		if(PILOTE_SPI.tmp_acmd>32)
    1300:	81 32       	cpi	r24, 0x21	; 33
    1302:	18 f0       	brcs	.+6      	; 0x130a <Acomoda_5x32+0x3de>
		PILOTE_SPI.tmp_acmd=32;		
    1304:	80 e2       	ldi	r24, 0x20	; 32
    1306:	80 93 a5 00 	sts	0x00A5, r24	; 0x8000a5 <PILOTE_SPI+0x25>
		
		PILOTE_SPI.OUT_BARRIDO[3] = PILOTE_SPI.OUT_BARRIDO[3]>>(32-PILOTE_SPI.tmp_acmd);
    130a:	e0 e8       	ldi	r30, 0x80	; 128
    130c:	f0 e0       	ldi	r31, 0x00	; 0
    130e:	85 a1       	ldd	r24, Z+37	; 0x25
    1310:	20 e2       	ldi	r18, 0x20	; 32
    1312:	30 e0       	ldi	r19, 0x00	; 0
    1314:	28 1b       	sub	r18, r24
    1316:	31 09       	sbc	r19, r1
    1318:	8f ef       	ldi	r24, 0xFF	; 255
    131a:	9f ef       	ldi	r25, 0xFF	; 255
    131c:	dc 01       	movw	r26, r24
    131e:	04 c0       	rjmp	.+8      	; 0x1328 <Acomoda_5x32+0x3fc>
    1320:	b6 95       	lsr	r27
    1322:	a7 95       	ror	r26
    1324:	97 95       	ror	r25
    1326:	87 95       	ror	r24
    1328:	2a 95       	dec	r18
    132a:	d2 f7       	brpl	.-12     	; 0x1320 <Acomoda_5x32+0x3f4>
    132c:	85 87       	std	Z+13, r24	; 0x0d
    132e:	96 87       	std	Z+14, r25	; 0x0e
    1330:	a7 87       	std	Z+15, r26	; 0x0f
    1332:	b0 8b       	std	Z+16, r27	; 0x10
		
		if((MODE_DEPLOYE.selectionner_mode==PRG_SEG) || (MODE_DEPLOYE.selectionner_mode==PRG_ALRM_ON_OFF)|| (MODE_DEPLOYE.selectionner_mode==PRG_SONIDOS))
    1334:	20 91 b0 00 	lds	r18, 0x00B0	; 0x8000b0 <MODE_DEPLOYE>
    1338:	21 30       	cpi	r18, 0x01	; 1
    133a:	29 f0       	breq	.+10     	; 0x1346 <Acomoda_5x32+0x41a>
    133c:	2b 30       	cpi	r18, 0x0B	; 11
    133e:	19 f0       	breq	.+6      	; 0x1346 <Acomoda_5x32+0x41a>
    1340:	2d 30       	cpi	r18, 0x0D	; 13
    1342:	09 f0       	breq	.+2      	; 0x1346 <Acomoda_5x32+0x41a>
    1344:	51 c0       	rjmp	.+162    	; 0x13e8 <Acomoda_5x32+0x4bc>
		{
			aux_rev_sec = PILOTE_SPI.checa_parpadea_12AM ? 0 :PILOTE_SPI.OUT_BARRIDO[3];
    1346:	20 91 aa 00 	lds	r18, 0x00AA	; 0x8000aa <PILOTE_SPI+0x2a>
    134a:	21 11       	cpse	r18, r1
    134c:	03 c0       	rjmp	.+6      	; 0x1354 <Acomoda_5x32+0x428>
    134e:	ac 01       	movw	r20, r24
    1350:	bd 01       	movw	r22, r26
    1352:	03 c0       	rjmp	.+6      	; 0x135a <Acomoda_5x32+0x42e>
    1354:	40 e0       	ldi	r20, 0x00	; 0
    1356:	50 e0       	ldi	r21, 0x00	; 0
    1358:	ba 01       	movw	r22, r20
			PILOTE_SPI.OUT_BARRIDO[3] |= aux_rev_sec;
    135a:	84 2b       	or	r24, r20
    135c:	95 2b       	or	r25, r21
    135e:	a6 2b       	or	r26, r22
    1360:	b7 2b       	or	r27, r23
    1362:	80 93 8d 00 	sts	0x008D, r24	; 0x80008d <PILOTE_SPI+0xd>
    1366:	90 93 8e 00 	sts	0x008E, r25	; 0x80008e <PILOTE_SPI+0xe>
    136a:	a0 93 8f 00 	sts	0x008F, r26	; 0x80008f <PILOTE_SPI+0xf>
    136e:	b0 93 90 00 	sts	0x0090, r27	; 0x800090 <PILOTE_SPI+0x10>
    1372:	3a c0       	rjmp	.+116    	; 0x13e8 <Acomoda_5x32+0x4bc>
		}
		
	}
	else
	{
		if(PILOTE_SPI.OUT_BARRIDO[3]!=0)
    1374:	80 91 8d 00 	lds	r24, 0x008D	; 0x80008d <PILOTE_SPI+0xd>
    1378:	90 91 8e 00 	lds	r25, 0x008E	; 0x80008e <PILOTE_SPI+0xe>
    137c:	a0 91 8f 00 	lds	r26, 0x008F	; 0x80008f <PILOTE_SPI+0xf>
    1380:	b0 91 90 00 	lds	r27, 0x0090	; 0x800090 <PILOTE_SPI+0x10>
    1384:	89 2b       	or	r24, r25
    1386:	8a 2b       	or	r24, r26
    1388:	8b 2b       	or	r24, r27
    138a:	41 f0       	breq	.+16     	; 0x139c <Acomoda_5x32+0x470>
		PILOTE_SPI.OUT_BARRIDO[3]=0;
    138c:	10 92 8d 00 	sts	0x008D, r1	; 0x80008d <PILOTE_SPI+0xd>
    1390:	10 92 8e 00 	sts	0x008E, r1	; 0x80008e <PILOTE_SPI+0xe>
    1394:	10 92 8f 00 	sts	0x008F, r1	; 0x80008f <PILOTE_SPI+0xf>
    1398:	10 92 90 00 	sts	0x0090, r1	; 0x800090 <PILOTE_SPI+0x10>
		
		if((MODE_DEPLOYE.selectionner_mode==PRG_SEG) ||(MODE_DEPLOYE.selectionner_mode==PRG_ALRM_ON_OFF)|| (MODE_DEPLOYE.selectionner_mode==PRG_SONIDOS))
    139c:	80 91 b0 00 	lds	r24, 0x00B0	; 0x8000b0 <MODE_DEPLOYE>
    13a0:	81 30       	cpi	r24, 0x01	; 1
    13a2:	21 f0       	breq	.+8      	; 0x13ac <Acomoda_5x32+0x480>
    13a4:	8b 30       	cpi	r24, 0x0B	; 11
    13a6:	11 f0       	breq	.+4      	; 0x13ac <Acomoda_5x32+0x480>
    13a8:	8d 30       	cpi	r24, 0x0D	; 13
    13aa:	f1 f4       	brne	.+60     	; 0x13e8 <Acomoda_5x32+0x4bc>
		{
			aux_rev_sec = PILOTE_SPI.checa_parpadea_12AM ? 0 :PILOTE_SPI.OUT_BARRIDO[3];
    13ac:	80 91 aa 00 	lds	r24, 0x00AA	; 0x8000aa <PILOTE_SPI+0x2a>
    13b0:	81 11       	cpse	r24, r1
    13b2:	09 c0       	rjmp	.+18     	; 0x13c6 <Acomoda_5x32+0x49a>
    13b4:	80 91 8d 00 	lds	r24, 0x008D	; 0x80008d <PILOTE_SPI+0xd>
    13b8:	90 91 8e 00 	lds	r25, 0x008E	; 0x80008e <PILOTE_SPI+0xe>
    13bc:	a0 91 8f 00 	lds	r26, 0x008F	; 0x80008f <PILOTE_SPI+0xf>
    13c0:	b0 91 90 00 	lds	r27, 0x0090	; 0x800090 <PILOTE_SPI+0x10>
    13c4:	03 c0       	rjmp	.+6      	; 0x13cc <Acomoda_5x32+0x4a0>
    13c6:	80 e0       	ldi	r24, 0x00	; 0
    13c8:	90 e0       	ldi	r25, 0x00	; 0
    13ca:	dc 01       	movw	r26, r24
			PILOTE_SPI.OUT_BARRIDO[3] |= aux_rev_sec;			
    13cc:	e0 e8       	ldi	r30, 0x80	; 128
    13ce:	f0 e0       	ldi	r31, 0x00	; 0
    13d0:	45 85       	ldd	r20, Z+13	; 0x0d
    13d2:	56 85       	ldd	r21, Z+14	; 0x0e
    13d4:	67 85       	ldd	r22, Z+15	; 0x0f
    13d6:	70 89       	ldd	r23, Z+16	; 0x10
    13d8:	84 2b       	or	r24, r20
    13da:	95 2b       	or	r25, r21
    13dc:	a6 2b       	or	r26, r22
    13de:	b7 2b       	or	r27, r23
    13e0:	85 87       	std	Z+13, r24	; 0x0d
    13e2:	96 87       	std	Z+14, r25	; 0x0e
    13e4:	a7 87       	std	Z+15, r26	; 0x0f
    13e6:	b0 8b       	std	Z+16, r27	; 0x10
		}		
	}
	/******************************************************************************/
	/**   OUTBARRIDO[4]                                                ************/
	
	PILOTE_SPI.tmp_acmd=PILOTE_HORLOGE.sec;
    13e8:	80 91 61 00 	lds	r24, 0x0061	; 0x800061 <PILOTE_HORLOGE>
    13ec:	80 93 a5 00 	sts	0x00A5, r24	; 0x8000a5 <PILOTE_SPI+0x25>
			 
	if(PILOTE_HORLOGE.sec==0x00)
    13f0:	81 11       	cpse	r24, r1
    13f2:	04 c0       	rjmp	.+8      	; 0x13fc <Acomoda_5x32+0x4d0>
	{
		PILOTE_SPI.tmp_acmd=60;
    13f4:	8c e3       	ldi	r24, 0x3C	; 60
    13f6:	80 93 a5 00 	sts	0x00A5, r24	; 0x8000a5 <PILOTE_SPI+0x25>
    13fa:	72 c0       	rjmp	.+228    	; 0x14e0 <Acomoda_5x32+0x5b4>
	}

	if(PILOTE_SPI.tmp_acmd<=15)
    13fc:	80 31       	cpi	r24, 0x10	; 16
    13fe:	08 f0       	brcs	.+2      	; 0x1402 <Acomoda_5x32+0x4d6>
    1400:	3f c0       	rjmp	.+126    	; 0x1480 <Acomoda_5x32+0x554>
		//if(PILOTE_SPI.OUT_BARRIDO[4]!=CLR_UP)
		PILOTE_SPI.OUT_BARRIDO[4]=CLR_UP;              //      1111 1111 1000 0000 0000 0000 0000 0000
		                                               //      0000 0000 0000 0000 0000 0000 0000 0000
		PILOTE_SPI.OUT_BARRIDO[4]=PILOTE_SPI.OUT_BARRIDO[4]>>(16-PILOTE_SPI.tmp_acmd);
		PILOTE_SPI.OUT_BARRIDO[4]=PILOTE_SPI.OUT_BARRIDO[4]<<(1);
		PILOTE_SPI.OUT_BARRIDO[4]&=  0xFFFE0000;		
    1402:	20 e1       	ldi	r18, 0x10	; 16
    1404:	30 e0       	ldi	r19, 0x00	; 0
    1406:	28 1b       	sub	r18, r24
    1408:	31 09       	sbc	r19, r1
    140a:	8f ef       	ldi	r24, 0xFF	; 255
    140c:	9f ef       	ldi	r25, 0xFF	; 255
    140e:	dc 01       	movw	r26, r24
    1410:	04 c0       	rjmp	.+8      	; 0x141a <Acomoda_5x32+0x4ee>
    1412:	b6 95       	lsr	r27
    1414:	a7 95       	ror	r26
    1416:	97 95       	ror	r25
    1418:	87 95       	ror	r24
    141a:	2a 95       	dec	r18
    141c:	d2 f7       	brpl	.-12     	; 0x1412 <Acomoda_5x32+0x4e6>
    141e:	88 0f       	add	r24, r24
    1420:	99 1f       	adc	r25, r25
    1422:	aa 1f       	adc	r26, r26
    1424:	bb 1f       	adc	r27, r27
    1426:	88 27       	eor	r24, r24
    1428:	99 27       	eor	r25, r25
    142a:	ae 7f       	andi	r26, 0xFE	; 254
    142c:	80 93 91 00 	sts	0x0091, r24	; 0x800091 <PILOTE_SPI+0x11>
    1430:	90 93 92 00 	sts	0x0092, r25	; 0x800092 <PILOTE_SPI+0x12>
    1434:	a0 93 93 00 	sts	0x0093, r26	; 0x800093 <PILOTE_SPI+0x13>
    1438:	b0 93 94 00 	sts	0x0094, r27	; 0x800094 <PILOTE_SPI+0x14>
		
		if((MODE_DEPLOYE.selectionner_mode==PRG_SEG) || (MODE_DEPLOYE.selectionner_mode==PRG_ALRM_ON_OFF)|| (MODE_DEPLOYE.selectionner_mode==PRG_SONIDOS))
    143c:	20 91 b0 00 	lds	r18, 0x00B0	; 0x8000b0 <MODE_DEPLOYE>
    1440:	21 30       	cpi	r18, 0x01	; 1
    1442:	29 f0       	breq	.+10     	; 0x144e <Acomoda_5x32+0x522>
    1444:	2b 30       	cpi	r18, 0x0B	; 11
    1446:	19 f0       	breq	.+6      	; 0x144e <Acomoda_5x32+0x522>
    1448:	2d 30       	cpi	r18, 0x0D	; 13
    144a:	09 f0       	breq	.+2      	; 0x144e <Acomoda_5x32+0x522>
    144c:	9d c0       	rjmp	.+314    	; 0x1588 <Acomoda_5x32+0x65c>
		{
			aux_rev_sec= PILOTE_SPI.checa_parpadea_12AM ? 0 : 0xFFFE0000;
    144e:	20 91 aa 00 	lds	r18, 0x00AA	; 0x8000aa <PILOTE_SPI+0x2a>
    1452:	21 11       	cpse	r18, r1
    1454:	05 c0       	rjmp	.+10     	; 0x1460 <Acomoda_5x32+0x534>
    1456:	40 e0       	ldi	r20, 0x00	; 0
    1458:	50 e0       	ldi	r21, 0x00	; 0
    145a:	6e ef       	ldi	r22, 0xFE	; 254
    145c:	7f ef       	ldi	r23, 0xFF	; 255
    145e:	03 c0       	rjmp	.+6      	; 0x1466 <Acomoda_5x32+0x53a>
    1460:	40 e0       	ldi	r20, 0x00	; 0
    1462:	50 e0       	ldi	r21, 0x00	; 0
    1464:	ba 01       	movw	r22, r20
			PILOTE_SPI.OUT_BARRIDO[4] &= aux_rev_sec; 
    1466:	84 23       	and	r24, r20
    1468:	95 23       	and	r25, r21
    146a:	a6 23       	and	r26, r22
    146c:	b7 23       	and	r27, r23
    146e:	80 93 91 00 	sts	0x0091, r24	; 0x800091 <PILOTE_SPI+0x11>
    1472:	90 93 92 00 	sts	0x0092, r25	; 0x800092 <PILOTE_SPI+0x12>
    1476:	a0 93 93 00 	sts	0x0093, r26	; 0x800093 <PILOTE_SPI+0x13>
    147a:	b0 93 94 00 	sts	0x0094, r27	; 0x800094 <PILOTE_SPI+0x14>
    147e:	84 c0       	rjmp	.+264    	; 0x1588 <Acomoda_5x32+0x65c>
      	}       
	
	}
	else
	{
		if(PILOTE_SPI.tmp_acmd!=60)
    1480:	8c 33       	cpi	r24, 0x3C	; 60
    1482:	71 f1       	breq	.+92     	; 0x14e0 <Acomoda_5x32+0x5b4>
		{
			PILOTE_SPI.OUT_BARRIDO[4]|= 0XFFFE0000;
    1484:	e0 e8       	ldi	r30, 0x80	; 128
    1486:	f0 e0       	ldi	r31, 0x00	; 0
    1488:	81 89       	ldd	r24, Z+17	; 0x11
    148a:	92 89       	ldd	r25, Z+18	; 0x12
    148c:	a3 89       	ldd	r26, Z+19	; 0x13
    148e:	b4 89       	ldd	r27, Z+20	; 0x14
    1490:	ae 6f       	ori	r26, 0xFE	; 254
    1492:	bf 6f       	ori	r27, 0xFF	; 255
    1494:	81 8b       	std	Z+17, r24	; 0x11
    1496:	92 8b       	std	Z+18, r25	; 0x12
    1498:	a3 8b       	std	Z+19, r26	; 0x13
    149a:	b4 8b       	std	Z+20, r27	; 0x14
			
			if((MODE_DEPLOYE.selectionner_mode==PRG_SEG) || (MODE_DEPLOYE.selectionner_mode==PRG_ALRM_ON_OFF)|| (MODE_DEPLOYE.selectionner_mode==PRG_SONIDOS))
    149c:	20 91 b0 00 	lds	r18, 0x00B0	; 0x8000b0 <MODE_DEPLOYE>
    14a0:	21 30       	cpi	r18, 0x01	; 1
    14a2:	29 f0       	breq	.+10     	; 0x14ae <Acomoda_5x32+0x582>
    14a4:	2b 30       	cpi	r18, 0x0B	; 11
    14a6:	19 f0       	breq	.+6      	; 0x14ae <Acomoda_5x32+0x582>
    14a8:	2d 30       	cpi	r18, 0x0D	; 13
    14aa:	09 f0       	breq	.+2      	; 0x14ae <Acomoda_5x32+0x582>
    14ac:	6d c0       	rjmp	.+218    	; 0x1588 <Acomoda_5x32+0x65c>
			{
				
				PILOTE_SPI.OUT_BARRIDO[4] |= PILOTE_SPI.checa_parpadea_12AM ? 0 : 0xFFFE0000;				
    14ae:	20 91 aa 00 	lds	r18, 0x00AA	; 0x8000aa <PILOTE_SPI+0x2a>
    14b2:	21 11       	cpse	r18, r1
    14b4:	05 c0       	rjmp	.+10     	; 0x14c0 <Acomoda_5x32+0x594>
    14b6:	40 e0       	ldi	r20, 0x00	; 0
    14b8:	50 e0       	ldi	r21, 0x00	; 0
    14ba:	6e ef       	ldi	r22, 0xFE	; 254
    14bc:	7f ef       	ldi	r23, 0xFF	; 255
    14be:	03 c0       	rjmp	.+6      	; 0x14c6 <Acomoda_5x32+0x59a>
    14c0:	40 e0       	ldi	r20, 0x00	; 0
    14c2:	50 e0       	ldi	r21, 0x00	; 0
    14c4:	ba 01       	movw	r22, r20
    14c6:	84 2b       	or	r24, r20
    14c8:	95 2b       	or	r25, r21
    14ca:	a6 2b       	or	r26, r22
    14cc:	b7 2b       	or	r27, r23
    14ce:	80 93 91 00 	sts	0x0091, r24	; 0x800091 <PILOTE_SPI+0x11>
    14d2:	90 93 92 00 	sts	0x0092, r25	; 0x800092 <PILOTE_SPI+0x12>
    14d6:	a0 93 93 00 	sts	0x0093, r26	; 0x800093 <PILOTE_SPI+0x13>
    14da:	b0 93 94 00 	sts	0x0094, r27	; 0x800094 <PILOTE_SPI+0x14>
    14de:	54 c0       	rjmp	.+168    	; 0x1588 <Acomoda_5x32+0x65c>
			}
			
		}
		else
		{
			PILOTE_SPI.OUT_BARRIDO[4]= 0xFFFF0000;
    14e0:	80 e0       	ldi	r24, 0x00	; 0
    14e2:	90 e0       	ldi	r25, 0x00	; 0
    14e4:	af ef       	ldi	r26, 0xFF	; 255
    14e6:	bf ef       	ldi	r27, 0xFF	; 255
    14e8:	80 93 91 00 	sts	0x0091, r24	; 0x800091 <PILOTE_SPI+0x11>
    14ec:	90 93 92 00 	sts	0x0092, r25	; 0x800092 <PILOTE_SPI+0x12>
    14f0:	a0 93 93 00 	sts	0x0093, r26	; 0x800093 <PILOTE_SPI+0x13>
    14f4:	b0 93 94 00 	sts	0x0094, r27	; 0x800094 <PILOTE_SPI+0x14>
			if((MODE_DEPLOYE.selectionner_mode==PRG_SEG) || (MODE_DEPLOYE.selectionner_mode==PRG_ALRM_ON_OFF)|| (MODE_DEPLOYE.selectionner_mode==PRG_SONIDOS))
    14f8:	80 91 b0 00 	lds	r24, 0x00B0	; 0x8000b0 <MODE_DEPLOYE>
    14fc:	81 30       	cpi	r24, 0x01	; 1
    14fe:	29 f0       	breq	.+10     	; 0x150a <Acomoda_5x32+0x5de>
    1500:	8b 30       	cpi	r24, 0x0B	; 11
    1502:	19 f0       	breq	.+6      	; 0x150a <Acomoda_5x32+0x5de>
    1504:	8d 30       	cpi	r24, 0x0D	; 13
    1506:	09 f0       	breq	.+2      	; 0x150a <Acomoda_5x32+0x5de>
    1508:	3f c0       	rjmp	.+126    	; 0x1588 <Acomoda_5x32+0x65c>
			{
				
				PILOTE_SPI.OUT_BARRIDO[4] = PILOTE_SPI.checa_parpadea_12AM ? 0 : 0xFFFF0000;
    150a:	80 91 aa 00 	lds	r24, 0x00AA	; 0x8000aa <PILOTE_SPI+0x2a>
    150e:	81 11       	cpse	r24, r1
    1510:	05 c0       	rjmp	.+10     	; 0x151c <Acomoda_5x32+0x5f0>
    1512:	80 e0       	ldi	r24, 0x00	; 0
    1514:	90 e0       	ldi	r25, 0x00	; 0
    1516:	af ef       	ldi	r26, 0xFF	; 255
    1518:	bf ef       	ldi	r27, 0xFF	; 255
    151a:	03 c0       	rjmp	.+6      	; 0x1522 <Acomoda_5x32+0x5f6>
    151c:	80 e0       	ldi	r24, 0x00	; 0
    151e:	90 e0       	ldi	r25, 0x00	; 0
    1520:	dc 01       	movw	r26, r24
    1522:	80 93 91 00 	sts	0x0091, r24	; 0x800091 <PILOTE_SPI+0x11>
    1526:	90 93 92 00 	sts	0x0092, r25	; 0x800092 <PILOTE_SPI+0x12>
    152a:	a0 93 93 00 	sts	0x0093, r26	; 0x800093 <PILOTE_SPI+0x13>
    152e:	b0 93 94 00 	sts	0x0094, r27	; 0x800094 <PILOTE_SPI+0x14>


	}
	
	
}
    1532:	2a c0       	rjmp	.+84     	; 0x1588 <Acomoda_5x32+0x65c>
		PILOTE_SPI.temp_32_SH  =  1;
		PILOTE_SPI.tmp_acmd= 1;
		
	}

	if(PILOTE_SPI.tmp_acmd>=MOD_S1){
    1534:	84 33       	cpi	r24, 0x34	; 52
    1536:	08 f0       	brcs	.+2      	; 0x153a <Acomoda_5x32+0x60e>
    1538:	b1 cd       	rjmp	.-1182   	; 0x109c <Acomoda_5x32+0x170>
    153a:	ce cd       	rjmp	.-1124   	; 0x10d8 <Acomoda_5x32+0x1ac>
	}
	else
	PILOTE_SPI.tmp_acmd=60;
}
	
	if(PILOTE_SPI.tmp_acmd>47)
    153c:	90 91 a5 00 	lds	r25, 0x00A5	; 0x8000a5 <PILOTE_SPI+0x25>
    1540:	77 ce       	rjmp	.-786    	; 0x1230 <Acomoda_5x32+0x304>
    1542:	80 33       	cpi	r24, 0x30	; 48
    1544:	08 f4       	brcc	.+2      	; 0x1548 <Acomoda_5x32+0x61c>
    1546:	d7 ce       	rjmp	.-594    	; 0x12f6 <Acomoda_5x32+0x3ca>
    1548:	72 ce       	rjmp	.-796    	; 0x122e <Acomoda_5x32+0x302>
			{
				aux_rev_sec = PILOTE_SPI.checa_parpadea_12AM ? 0xFFFFE000 :  0X1FFF;
				
				if(aux_rev_sec==0xFFFFE000)
				{
					PILOTE_SPI.OUT_BARRIDO[2] &= aux_rev_sec;
    154a:	44 27       	eor	r20, r20
    154c:	50 7e       	andi	r21, 0xE0	; 224
    154e:	40 93 89 00 	sts	0x0089, r20	; 0x800089 <PILOTE_SPI+0x9>
    1552:	50 93 8a 00 	sts	0x008A, r21	; 0x80008a <PILOTE_SPI+0xa>
    1556:	60 93 8b 00 	sts	0x008B, r22	; 0x80008b <PILOTE_SPI+0xb>
    155a:	70 93 8c 00 	sts	0x008C, r23	; 0x80008c <PILOTE_SPI+0xc>
    155e:	b5 ce       	rjmp	.-662    	; 0x12ca <Acomoda_5x32+0x39e>
				{
			//		if(PILOTE_SPI.temp_32_SH!=CLR_UP)
					PILOTE_SPI.temp_32_SH=CLR_UP;
					
					PILOTE_SPI.temp_32_SH= PILOTE_SPI.temp_32_SH>>(32-PILOTE_SPI.tmp_acmd);
					PILOTE_SPI.OUT_BARRIDO[2] |= PILOTE_SPI.temp_32_SH;
    1560:	40 2b       	or	r20, r16
    1562:	51 2b       	or	r21, r17
    1564:	62 2b       	or	r22, r18
    1566:	73 2b       	or	r23, r19
    1568:	40 93 89 00 	sts	0x0089, r20	; 0x800089 <PILOTE_SPI+0x9>
    156c:	50 93 8a 00 	sts	0x008A, r21	; 0x80008a <PILOTE_SPI+0xa>
    1570:	60 93 8b 00 	sts	0x008B, r22	; 0x80008b <PILOTE_SPI+0xb>
    1574:	70 93 8c 00 	sts	0x008C, r23	; 0x80008c <PILOTE_SPI+0xc>
    1578:	a8 ce       	rjmp	.-688    	; 0x12ca <Acomoda_5x32+0x39e>
		}
	}
	/******************************************************************************/
	/**   OUTBARRIDO[3]                                                ************/

	if(PILOTE_HORLOGE.sec==0)
    157a:	88 23       	and	r24, r24
    157c:	09 f4       	brne	.+2      	; 0x1580 <Acomoda_5x32+0x654>
    157e:	b7 ce       	rjmp	.-658    	; 0x12ee <Acomoda_5x32+0x3c2>
    1580:	ba ce       	rjmp	.-652    	; 0x12f6 <Acomoda_5x32+0x3ca>
	else
	{
		PILOTE_SPI.tmp_acmd=PILOTE_HORLOGE.sec;
	}

	if(PILOTE_SPI.tmp_acmd>15)
    1582:	80 91 a5 00 	lds	r24, 0x00A5	; 0x8000a5 <PILOTE_SPI+0x25>
    1586:	b9 ce       	rjmp	.-654    	; 0x12fa <Acomoda_5x32+0x3ce>


	}
	
	
}
    1588:	1f 91       	pop	r17
    158a:	0f 91       	pop	r16
    158c:	ff 90       	pop	r15
    158e:	ef 90       	pop	r14
    1590:	df 90       	pop	r13
    1592:	cf 90       	pop	r12
    1594:	08 95       	ret

00001596 <Acomoda_5X32_DATE>:



void Acomoda_5X32_DATE(void)
{
    1596:	0f 93       	push	r16
    1598:	1f 93       	push	r17
uint32_t	aux_rev_sec;
	//*******OUT_BARRIDO[0]**************///////////
	
	switch(PILOTE_HORLOGE.month)
    159a:	e0 91 65 00 	lds	r30, 0x0065	; 0x800065 <PILOTE_HORLOGE+0x4>
    159e:	8e 2f       	mov	r24, r30
    15a0:	90 e0       	ldi	r25, 0x00	; 0
    15a2:	8d 30       	cpi	r24, 0x0D	; 13
    15a4:	91 05       	cpc	r25, r1
    15a6:	08 f0       	brcs	.+2      	; 0x15aa <Acomoda_5X32_DATE+0x14>
    15a8:	4b c1       	rjmp	.+662    	; 0x1840 <Acomoda_5X32_DATE+0x2aa>
    15aa:	fc 01       	movw	r30, r24
    15ac:	e8 5c       	subi	r30, 0xC8	; 200
    15ae:	ff 4f       	sbci	r31, 0xFF	; 255
    15b0:	0c 94 f1 14 	jmp	0x29e2	; 0x29e2 <__tablejump2__>
	{
		case 0:
		//if(PILOTE_SPI.OUT_BARRIDO[0]!=0)
		PILOTE_SPI.OUT_BARRIDO[0]=0x0;
    15b4:	10 92 81 00 	sts	0x0081, r1	; 0x800081 <PILOTE_SPI+0x1>
    15b8:	10 92 82 00 	sts	0x0082, r1	; 0x800082 <PILOTE_SPI+0x2>
    15bc:	10 92 83 00 	sts	0x0083, r1	; 0x800083 <PILOTE_SPI+0x3>
    15c0:	10 92 84 00 	sts	0x0084, r1	; 0x800084 <PILOTE_SPI+0x4>
		
		break;
    15c4:	3d c1       	rjmp	.+634    	; 0x1840 <Acomoda_5X32_DATE+0x2aa>
		
		case ENE:       
		
		if(PILOTE_SPI.OUT_BARRIDO[0]!=0b00000000001000000000001000000000)
    15c6:	80 91 81 00 	lds	r24, 0x0081	; 0x800081 <PILOTE_SPI+0x1>
    15ca:	90 91 82 00 	lds	r25, 0x0082	; 0x800082 <PILOTE_SPI+0x2>
    15ce:	a0 91 83 00 	lds	r26, 0x0083	; 0x800083 <PILOTE_SPI+0x3>
    15d2:	b0 91 84 00 	lds	r27, 0x0084	; 0x800084 <PILOTE_SPI+0x4>
    15d6:	81 15       	cp	r24, r1
    15d8:	92 40       	sbci	r25, 0x02	; 2
    15da:	a0 42       	sbci	r26, 0x20	; 32
    15dc:	b1 05       	cpc	r27, r1
    15de:	09 f4       	brne	.+2      	; 0x15e2 <Acomoda_5X32_DATE+0x4c>
    15e0:	2f c1       	rjmp	.+606    	; 0x1840 <Acomoda_5X32_DATE+0x2aa>
		PILOTE_SPI.OUT_BARRIDO[0]=0b00000000001000000000001000000000;
    15e2:	80 e0       	ldi	r24, 0x00	; 0
    15e4:	92 e0       	ldi	r25, 0x02	; 2
    15e6:	a0 e2       	ldi	r26, 0x20	; 32
    15e8:	b0 e0       	ldi	r27, 0x00	; 0
    15ea:	80 93 81 00 	sts	0x0081, r24	; 0x800081 <PILOTE_SPI+0x1>
    15ee:	90 93 82 00 	sts	0x0082, r25	; 0x800082 <PILOTE_SPI+0x2>
    15f2:	a0 93 83 00 	sts	0x0083, r26	; 0x800083 <PILOTE_SPI+0x3>
    15f6:	b0 93 84 00 	sts	0x0084, r27	; 0x800084 <PILOTE_SPI+0x4>
    15fa:	22 c1       	rjmp	.+580    	; 0x1840 <Acomoda_5X32_DATE+0x2aa>
		break;
		
		case FEB:
		if(PILOTE_SPI.OUT_BARRIDO[0]!=0b00000000010000000000010000000000)
    15fc:	80 91 81 00 	lds	r24, 0x0081	; 0x800081 <PILOTE_SPI+0x1>
    1600:	90 91 82 00 	lds	r25, 0x0082	; 0x800082 <PILOTE_SPI+0x2>
    1604:	a0 91 83 00 	lds	r26, 0x0083	; 0x800083 <PILOTE_SPI+0x3>
    1608:	b0 91 84 00 	lds	r27, 0x0084	; 0x800084 <PILOTE_SPI+0x4>
    160c:	81 15       	cp	r24, r1
    160e:	94 40       	sbci	r25, 0x04	; 4
    1610:	a0 44       	sbci	r26, 0x40	; 64
    1612:	b1 05       	cpc	r27, r1
    1614:	09 f4       	brne	.+2      	; 0x1618 <Acomoda_5X32_DATE+0x82>
    1616:	14 c1       	rjmp	.+552    	; 0x1840 <Acomoda_5X32_DATE+0x2aa>
		PILOTE_SPI.OUT_BARRIDO[0]=0b00000000010000000000010000000000;
    1618:	80 e0       	ldi	r24, 0x00	; 0
    161a:	94 e0       	ldi	r25, 0x04	; 4
    161c:	a0 e4       	ldi	r26, 0x40	; 64
    161e:	b0 e0       	ldi	r27, 0x00	; 0
    1620:	80 93 81 00 	sts	0x0081, r24	; 0x800081 <PILOTE_SPI+0x1>
    1624:	90 93 82 00 	sts	0x0082, r25	; 0x800082 <PILOTE_SPI+0x2>
    1628:	a0 93 83 00 	sts	0x0083, r26	; 0x800083 <PILOTE_SPI+0x3>
    162c:	b0 93 84 00 	sts	0x0084, r27	; 0x800084 <PILOTE_SPI+0x4>
    1630:	07 c1       	rjmp	.+526    	; 0x1840 <Acomoda_5X32_DATE+0x2aa>
		
		break;
		
		case MAR:
		if(PILOTE_SPI.OUT_BARRIDO[0]!=0b00000000100000000000100000000000)
    1632:	80 91 81 00 	lds	r24, 0x0081	; 0x800081 <PILOTE_SPI+0x1>
    1636:	90 91 82 00 	lds	r25, 0x0082	; 0x800082 <PILOTE_SPI+0x2>
    163a:	a0 91 83 00 	lds	r26, 0x0083	; 0x800083 <PILOTE_SPI+0x3>
    163e:	b0 91 84 00 	lds	r27, 0x0084	; 0x800084 <PILOTE_SPI+0x4>
    1642:	81 15       	cp	r24, r1
    1644:	98 40       	sbci	r25, 0x08	; 8
    1646:	a0 48       	sbci	r26, 0x80	; 128
    1648:	b1 05       	cpc	r27, r1
    164a:	09 f4       	brne	.+2      	; 0x164e <Acomoda_5X32_DATE+0xb8>
    164c:	f9 c0       	rjmp	.+498    	; 0x1840 <Acomoda_5X32_DATE+0x2aa>
		PILOTE_SPI.OUT_BARRIDO[0]=0b00000000100000000000100000000000;
    164e:	80 e0       	ldi	r24, 0x00	; 0
    1650:	98 e0       	ldi	r25, 0x08	; 8
    1652:	a0 e8       	ldi	r26, 0x80	; 128
    1654:	b0 e0       	ldi	r27, 0x00	; 0
    1656:	80 93 81 00 	sts	0x0081, r24	; 0x800081 <PILOTE_SPI+0x1>
    165a:	90 93 82 00 	sts	0x0082, r25	; 0x800082 <PILOTE_SPI+0x2>
    165e:	a0 93 83 00 	sts	0x0083, r26	; 0x800083 <PILOTE_SPI+0x3>
    1662:	b0 93 84 00 	sts	0x0084, r27	; 0x800084 <PILOTE_SPI+0x4>
    1666:	ec c0       	rjmp	.+472    	; 0x1840 <Acomoda_5X32_DATE+0x2aa>
		
		break;
		
		
		case ABR:
		if(PILOTE_SPI.OUT_BARRIDO[0]!=0b00000001000000000001000000000000)
    1668:	80 91 81 00 	lds	r24, 0x0081	; 0x800081 <PILOTE_SPI+0x1>
    166c:	90 91 82 00 	lds	r25, 0x0082	; 0x800082 <PILOTE_SPI+0x2>
    1670:	a0 91 83 00 	lds	r26, 0x0083	; 0x800083 <PILOTE_SPI+0x3>
    1674:	b0 91 84 00 	lds	r27, 0x0084	; 0x800084 <PILOTE_SPI+0x4>
    1678:	81 15       	cp	r24, r1
    167a:	90 41       	sbci	r25, 0x10	; 16
    167c:	a1 05       	cpc	r26, r1
    167e:	b1 40       	sbci	r27, 0x01	; 1
    1680:	09 f4       	brne	.+2      	; 0x1684 <Acomoda_5X32_DATE+0xee>
    1682:	de c0       	rjmp	.+444    	; 0x1840 <Acomoda_5X32_DATE+0x2aa>
		PILOTE_SPI.OUT_BARRIDO[0]=0b00000001000000000001000000000000;
    1684:	80 e0       	ldi	r24, 0x00	; 0
    1686:	90 e1       	ldi	r25, 0x10	; 16
    1688:	a0 e0       	ldi	r26, 0x00	; 0
    168a:	b1 e0       	ldi	r27, 0x01	; 1
    168c:	80 93 81 00 	sts	0x0081, r24	; 0x800081 <PILOTE_SPI+0x1>
    1690:	90 93 82 00 	sts	0x0082, r25	; 0x800082 <PILOTE_SPI+0x2>
    1694:	a0 93 83 00 	sts	0x0083, r26	; 0x800083 <PILOTE_SPI+0x3>
    1698:	b0 93 84 00 	sts	0x0084, r27	; 0x800084 <PILOTE_SPI+0x4>
    169c:	d1 c0       	rjmp	.+418    	; 0x1840 <Acomoda_5X32_DATE+0x2aa>
		
		break;
		
		case MAY2:
		if(PILOTE_SPI.OUT_BARRIDO[0]!=0b00000010000000000010000000000000)
    169e:	80 91 81 00 	lds	r24, 0x0081	; 0x800081 <PILOTE_SPI+0x1>
    16a2:	90 91 82 00 	lds	r25, 0x0082	; 0x800082 <PILOTE_SPI+0x2>
    16a6:	a0 91 83 00 	lds	r26, 0x0083	; 0x800083 <PILOTE_SPI+0x3>
    16aa:	b0 91 84 00 	lds	r27, 0x0084	; 0x800084 <PILOTE_SPI+0x4>
    16ae:	81 15       	cp	r24, r1
    16b0:	90 42       	sbci	r25, 0x20	; 32
    16b2:	a1 05       	cpc	r26, r1
    16b4:	b2 40       	sbci	r27, 0x02	; 2
    16b6:	09 f4       	brne	.+2      	; 0x16ba <Acomoda_5X32_DATE+0x124>
    16b8:	c3 c0       	rjmp	.+390    	; 0x1840 <Acomoda_5X32_DATE+0x2aa>
		PILOTE_SPI.OUT_BARRIDO[0]=0b00000010000000000010000000000000;
    16ba:	80 e0       	ldi	r24, 0x00	; 0
    16bc:	90 e2       	ldi	r25, 0x20	; 32
    16be:	a0 e0       	ldi	r26, 0x00	; 0
    16c0:	b2 e0       	ldi	r27, 0x02	; 2
    16c2:	80 93 81 00 	sts	0x0081, r24	; 0x800081 <PILOTE_SPI+0x1>
    16c6:	90 93 82 00 	sts	0x0082, r25	; 0x800082 <PILOTE_SPI+0x2>
    16ca:	a0 93 83 00 	sts	0x0083, r26	; 0x800083 <PILOTE_SPI+0x3>
    16ce:	b0 93 84 00 	sts	0x0084, r27	; 0x800084 <PILOTE_SPI+0x4>
    16d2:	b6 c0       	rjmp	.+364    	; 0x1840 <Acomoda_5X32_DATE+0x2aa>
		
		break;
		
		case JUN:
		if(PILOTE_SPI.OUT_BARRIDO[0]!=0b00000100000000000100000000000000)
    16d4:	80 91 81 00 	lds	r24, 0x0081	; 0x800081 <PILOTE_SPI+0x1>
    16d8:	90 91 82 00 	lds	r25, 0x0082	; 0x800082 <PILOTE_SPI+0x2>
    16dc:	a0 91 83 00 	lds	r26, 0x0083	; 0x800083 <PILOTE_SPI+0x3>
    16e0:	b0 91 84 00 	lds	r27, 0x0084	; 0x800084 <PILOTE_SPI+0x4>
    16e4:	81 15       	cp	r24, r1
    16e6:	90 44       	sbci	r25, 0x40	; 64
    16e8:	a1 05       	cpc	r26, r1
    16ea:	b4 40       	sbci	r27, 0x04	; 4
    16ec:	09 f4       	brne	.+2      	; 0x16f0 <Acomoda_5X32_DATE+0x15a>
    16ee:	a8 c0       	rjmp	.+336    	; 0x1840 <Acomoda_5X32_DATE+0x2aa>
		PILOTE_SPI.OUT_BARRIDO[0]=0b00000100000000000100000000000000;
    16f0:	80 e0       	ldi	r24, 0x00	; 0
    16f2:	90 e4       	ldi	r25, 0x40	; 64
    16f4:	a0 e0       	ldi	r26, 0x00	; 0
    16f6:	b4 e0       	ldi	r27, 0x04	; 4
    16f8:	80 93 81 00 	sts	0x0081, r24	; 0x800081 <PILOTE_SPI+0x1>
    16fc:	90 93 82 00 	sts	0x0082, r25	; 0x800082 <PILOTE_SPI+0x2>
    1700:	a0 93 83 00 	sts	0x0083, r26	; 0x800083 <PILOTE_SPI+0x3>
    1704:	b0 93 84 00 	sts	0x0084, r27	; 0x800084 <PILOTE_SPI+0x4>
    1708:	9b c0       	rjmp	.+310    	; 0x1840 <Acomoda_5X32_DATE+0x2aa>
		
		break;
		
		case JUL:
		if(PILOTE_SPI.OUT_BARRIDO[0]!=0b00001000000000001000000000000000)
    170a:	80 91 81 00 	lds	r24, 0x0081	; 0x800081 <PILOTE_SPI+0x1>
    170e:	90 91 82 00 	lds	r25, 0x0082	; 0x800082 <PILOTE_SPI+0x2>
    1712:	a0 91 83 00 	lds	r26, 0x0083	; 0x800083 <PILOTE_SPI+0x3>
    1716:	b0 91 84 00 	lds	r27, 0x0084	; 0x800084 <PILOTE_SPI+0x4>
    171a:	81 15       	cp	r24, r1
    171c:	90 48       	sbci	r25, 0x80	; 128
    171e:	a1 05       	cpc	r26, r1
    1720:	b8 40       	sbci	r27, 0x08	; 8
    1722:	09 f4       	brne	.+2      	; 0x1726 <Acomoda_5X32_DATE+0x190>
    1724:	8d c0       	rjmp	.+282    	; 0x1840 <Acomoda_5X32_DATE+0x2aa>
		PILOTE_SPI.OUT_BARRIDO[0]=0b00001000000000001000000000000000;
    1726:	80 e0       	ldi	r24, 0x00	; 0
    1728:	90 e8       	ldi	r25, 0x80	; 128
    172a:	a0 e0       	ldi	r26, 0x00	; 0
    172c:	b8 e0       	ldi	r27, 0x08	; 8
    172e:	80 93 81 00 	sts	0x0081, r24	; 0x800081 <PILOTE_SPI+0x1>
    1732:	90 93 82 00 	sts	0x0082, r25	; 0x800082 <PILOTE_SPI+0x2>
    1736:	a0 93 83 00 	sts	0x0083, r26	; 0x800083 <PILOTE_SPI+0x3>
    173a:	b0 93 84 00 	sts	0x0084, r27	; 0x800084 <PILOTE_SPI+0x4>
    173e:	80 c0       	rjmp	.+256    	; 0x1840 <Acomoda_5X32_DATE+0x2aa>
		
		break;
		
		case AGO2:
		if(PILOTE_SPI.OUT_BARRIDO[0]!=0b00010000000000010000000000000000)
    1740:	80 91 81 00 	lds	r24, 0x0081	; 0x800081 <PILOTE_SPI+0x1>
    1744:	90 91 82 00 	lds	r25, 0x0082	; 0x800082 <PILOTE_SPI+0x2>
    1748:	a0 91 83 00 	lds	r26, 0x0083	; 0x800083 <PILOTE_SPI+0x3>
    174c:	b0 91 84 00 	lds	r27, 0x0084	; 0x800084 <PILOTE_SPI+0x4>
    1750:	00 97       	sbiw	r24, 0x00	; 0
    1752:	a1 40       	sbci	r26, 0x01	; 1
    1754:	b0 41       	sbci	r27, 0x10	; 16
    1756:	09 f4       	brne	.+2      	; 0x175a <Acomoda_5X32_DATE+0x1c4>
    1758:	73 c0       	rjmp	.+230    	; 0x1840 <Acomoda_5X32_DATE+0x2aa>
		PILOTE_SPI.OUT_BARRIDO[0]=0b00010000000000010000000000000000;
    175a:	80 e0       	ldi	r24, 0x00	; 0
    175c:	90 e0       	ldi	r25, 0x00	; 0
    175e:	a1 e0       	ldi	r26, 0x01	; 1
    1760:	b0 e1       	ldi	r27, 0x10	; 16
    1762:	80 93 81 00 	sts	0x0081, r24	; 0x800081 <PILOTE_SPI+0x1>
    1766:	90 93 82 00 	sts	0x0082, r25	; 0x800082 <PILOTE_SPI+0x2>
    176a:	a0 93 83 00 	sts	0x0083, r26	; 0x800083 <PILOTE_SPI+0x3>
    176e:	b0 93 84 00 	sts	0x0084, r27	; 0x800084 <PILOTE_SPI+0x4>
    1772:	66 c0       	rjmp	.+204    	; 0x1840 <Acomoda_5X32_DATE+0x2aa>
		
		break;
		
		case SEP2:
		
		if(PILOTE_SPI.OUT_BARRIDO[0]!=0b00100000000000100000000000000000)
    1774:	80 91 81 00 	lds	r24, 0x0081	; 0x800081 <PILOTE_SPI+0x1>
    1778:	90 91 82 00 	lds	r25, 0x0082	; 0x800082 <PILOTE_SPI+0x2>
    177c:	a0 91 83 00 	lds	r26, 0x0083	; 0x800083 <PILOTE_SPI+0x3>
    1780:	b0 91 84 00 	lds	r27, 0x0084	; 0x800084 <PILOTE_SPI+0x4>
    1784:	00 97       	sbiw	r24, 0x00	; 0
    1786:	a2 40       	sbci	r26, 0x02	; 2
    1788:	b0 42       	sbci	r27, 0x20	; 32
    178a:	09 f4       	brne	.+2      	; 0x178e <Acomoda_5X32_DATE+0x1f8>
    178c:	59 c0       	rjmp	.+178    	; 0x1840 <Acomoda_5X32_DATE+0x2aa>
		PILOTE_SPI.OUT_BARRIDO[0]=0b00100000000000100000000000000000;
    178e:	80 e0       	ldi	r24, 0x00	; 0
    1790:	90 e0       	ldi	r25, 0x00	; 0
    1792:	a2 e0       	ldi	r26, 0x02	; 2
    1794:	b0 e2       	ldi	r27, 0x20	; 32
    1796:	80 93 81 00 	sts	0x0081, r24	; 0x800081 <PILOTE_SPI+0x1>
    179a:	90 93 82 00 	sts	0x0082, r25	; 0x800082 <PILOTE_SPI+0x2>
    179e:	a0 93 83 00 	sts	0x0083, r26	; 0x800083 <PILOTE_SPI+0x3>
    17a2:	b0 93 84 00 	sts	0x0084, r27	; 0x800084 <PILOTE_SPI+0x4>
    17a6:	4c c0       	rjmp	.+152    	; 0x1840 <Acomoda_5X32_DATE+0x2aa>
		
		break;
		
		case OCT:
		if(PILOTE_SPI.OUT_BARRIDO[0]!=0b01000000000001000000000000000000)
    17a8:	80 91 81 00 	lds	r24, 0x0081	; 0x800081 <PILOTE_SPI+0x1>
    17ac:	90 91 82 00 	lds	r25, 0x0082	; 0x800082 <PILOTE_SPI+0x2>
    17b0:	a0 91 83 00 	lds	r26, 0x0083	; 0x800083 <PILOTE_SPI+0x3>
    17b4:	b0 91 84 00 	lds	r27, 0x0084	; 0x800084 <PILOTE_SPI+0x4>
    17b8:	00 97       	sbiw	r24, 0x00	; 0
    17ba:	a4 40       	sbci	r26, 0x04	; 4
    17bc:	b0 44       	sbci	r27, 0x40	; 64
    17be:	09 f4       	brne	.+2      	; 0x17c2 <Acomoda_5X32_DATE+0x22c>
    17c0:	3f c0       	rjmp	.+126    	; 0x1840 <Acomoda_5X32_DATE+0x2aa>
		PILOTE_SPI.OUT_BARRIDO[0]=0b01000000000001000000000000000000;
    17c2:	80 e0       	ldi	r24, 0x00	; 0
    17c4:	90 e0       	ldi	r25, 0x00	; 0
    17c6:	a4 e0       	ldi	r26, 0x04	; 4
    17c8:	b0 e4       	ldi	r27, 0x40	; 64
    17ca:	80 93 81 00 	sts	0x0081, r24	; 0x800081 <PILOTE_SPI+0x1>
    17ce:	90 93 82 00 	sts	0x0082, r25	; 0x800082 <PILOTE_SPI+0x2>
    17d2:	a0 93 83 00 	sts	0x0083, r26	; 0x800083 <PILOTE_SPI+0x3>
    17d6:	b0 93 84 00 	sts	0x0084, r27	; 0x800084 <PILOTE_SPI+0x4>
    17da:	32 c0       	rjmp	.+100    	; 0x1840 <Acomoda_5X32_DATE+0x2aa>
		
		break;
		
		case NOV:
		if(PILOTE_SPI.OUT_BARRIDO[0]!=0b10000000000010000000000000000000)
    17dc:	80 91 81 00 	lds	r24, 0x0081	; 0x800081 <PILOTE_SPI+0x1>
    17e0:	90 91 82 00 	lds	r25, 0x0082	; 0x800082 <PILOTE_SPI+0x2>
    17e4:	a0 91 83 00 	lds	r26, 0x0083	; 0x800083 <PILOTE_SPI+0x3>
    17e8:	b0 91 84 00 	lds	r27, 0x0084	; 0x800084 <PILOTE_SPI+0x4>
    17ec:	00 97       	sbiw	r24, 0x00	; 0
    17ee:	a8 40       	sbci	r26, 0x08	; 8
    17f0:	b0 48       	sbci	r27, 0x80	; 128
    17f2:	31 f1       	breq	.+76     	; 0x1840 <Acomoda_5X32_DATE+0x2aa>
		PILOTE_SPI.OUT_BARRIDO[0]=0b10000000000010000000000000000000;
    17f4:	80 e0       	ldi	r24, 0x00	; 0
    17f6:	90 e0       	ldi	r25, 0x00	; 0
    17f8:	a8 e0       	ldi	r26, 0x08	; 8
    17fa:	b0 e8       	ldi	r27, 0x80	; 128
    17fc:	80 93 81 00 	sts	0x0081, r24	; 0x800081 <PILOTE_SPI+0x1>
    1800:	90 93 82 00 	sts	0x0082, r25	; 0x800082 <PILOTE_SPI+0x2>
    1804:	a0 93 83 00 	sts	0x0083, r26	; 0x800083 <PILOTE_SPI+0x3>
    1808:	b0 93 84 00 	sts	0x0084, r27	; 0x800084 <PILOTE_SPI+0x4>
    180c:	19 c0       	rjmp	.+50     	; 0x1840 <Acomoda_5X32_DATE+0x2aa>
		
		break;
		
		case DIC:
		
		if(PILOTE_SPI.OUT_BARRIDO[0]!=0b00000000000100000000000100000000)
    180e:	80 91 81 00 	lds	r24, 0x0081	; 0x800081 <PILOTE_SPI+0x1>
    1812:	90 91 82 00 	lds	r25, 0x0082	; 0x800082 <PILOTE_SPI+0x2>
    1816:	a0 91 83 00 	lds	r26, 0x0083	; 0x800083 <PILOTE_SPI+0x3>
    181a:	b0 91 84 00 	lds	r27, 0x0084	; 0x800084 <PILOTE_SPI+0x4>
    181e:	81 15       	cp	r24, r1
    1820:	91 40       	sbci	r25, 0x01	; 1
    1822:	a0 41       	sbci	r26, 0x10	; 16
    1824:	b1 05       	cpc	r27, r1
    1826:	61 f0       	breq	.+24     	; 0x1840 <Acomoda_5X32_DATE+0x2aa>
		PILOTE_SPI.OUT_BARRIDO[0]=0b00000000000100000000000100000000;
    1828:	80 e0       	ldi	r24, 0x00	; 0
    182a:	91 e0       	ldi	r25, 0x01	; 1
    182c:	a0 e1       	ldi	r26, 0x10	; 16
    182e:	b0 e0       	ldi	r27, 0x00	; 0
    1830:	80 93 81 00 	sts	0x0081, r24	; 0x800081 <PILOTE_SPI+0x1>
    1834:	90 93 82 00 	sts	0x0082, r25	; 0x800082 <PILOTE_SPI+0x2>
    1838:	a0 93 83 00 	sts	0x0083, r26	; 0x800083 <PILOTE_SPI+0x3>
    183c:	b0 93 84 00 	sts	0x0084, r27	; 0x800084 <PILOTE_SPI+0x4>
		
		break;
	}
	PILOTE_SPI.OUT_BARRIDO[0]&=0xFFFFFF00;
    1840:	e0 e8       	ldi	r30, 0x80	; 128
    1842:	f0 e0       	ldi	r31, 0x00	; 0
    1844:	81 81       	ldd	r24, Z+1	; 0x01
    1846:	92 81       	ldd	r25, Z+2	; 0x02
    1848:	a3 81       	ldd	r26, Z+3	; 0x03
    184a:	b4 81       	ldd	r27, Z+4	; 0x04
    184c:	88 27       	eor	r24, r24
    184e:	81 83       	std	Z+1, r24	; 0x01
    1850:	92 83       	std	Z+2, r25	; 0x02
    1852:	a3 83       	std	Z+3, r26	; 0x03
    1854:	b4 83       	std	Z+4, r27	; 0x04
	
	/************OUT_BARRIDO[1]********************////////////////////
	
	if(PILOTE_HORLOGE.date==0)
    1856:	80 91 64 00 	lds	r24, 0x0064	; 0x800064 <PILOTE_HORLOGE+0x3>
    185a:	81 11       	cpse	r24, r1
    185c:	0d c0       	rjmp	.+26     	; 0x1878 <Acomoda_5X32_DATE+0x2e2>
		}

	}
	else
	{
		if(PILOTE_SPI.OUT_BARRIDO[1]!=0)
    185e:	40 91 85 00 	lds	r20, 0x0085	; 0x800085 <PILOTE_SPI+0x5>
    1862:	50 91 86 00 	lds	r21, 0x0086	; 0x800086 <PILOTE_SPI+0x6>
    1866:	60 91 87 00 	lds	r22, 0x0087	; 0x800087 <PILOTE_SPI+0x7>
    186a:	70 91 88 00 	lds	r23, 0x0088	; 0x800088 <PILOTE_SPI+0x8>
    186e:	45 2b       	or	r20, r21
    1870:	46 2b       	or	r20, r22
    1872:	47 2b       	or	r20, r23
    1874:	c9 f5       	brne	.+114    	; 0x18e8 <Acomoda_5X32_DATE+0x352>
    1876:	42 c0       	rjmp	.+132    	; 0x18fc <Acomoda_5X32_DATE+0x366>
	{
		PILOTE_SPI.tmp_acmd = PILOTE_HORLOGE.date;

	}
	//******salida  1=51 segundo   32 = 19      ******************//
	if(PILOTE_SPI.tmp_acmd > 19)
    1878:	84 31       	cpi	r24, 0x14	; 20
    187a:	50 f1       	brcs	.+84     	; 0x18d0 <Acomoda_5X32_DATE+0x33a>
	{
		PILOTE_SPI.tmp_acmd = (PILOTE_SPI.tmp_acmd-19);
    187c:	9d ee       	ldi	r25, 0xED	; 237
    187e:	98 0f       	add	r25, r24
    1880:	90 93 a5 00 	sts	0x00A5, r25	; 0x8000a5 <PILOTE_SPI+0x25>

		//if(PILOTE_SPI.OUT_BARRIDO[1]!=CLR_UP)
		PILOTE_SPI.OUT_BARRIDO[1]=CLR_UP;

		if(PILOTE_SPI.tmp_acmd==0x29)  ///MIN = 60
    1884:	99 32       	cpi	r25, 0x29	; 41
    1886:	49 f4       	brne	.+18     	; 0x189a <Acomoda_5X32_DATE+0x304>
		{
			PILOTE_SPI.OUT_BARRIDO[1]&= 0;
    1888:	10 92 85 00 	sts	0x0085, r1	; 0x800085 <PILOTE_SPI+0x5>
    188c:	10 92 86 00 	sts	0x0086, r1	; 0x800086 <PILOTE_SPI+0x6>
    1890:	10 92 87 00 	sts	0x0087, r1	; 0x800087 <PILOTE_SPI+0x7>
    1894:	10 92 88 00 	sts	0x0088, r1	; 0x800088 <PILOTE_SPI+0x8>
    1898:	fd c1       	rjmp	.+1018   	; 0x1c94 <Acomoda_5X32_DATE+0x6fe>
		}
		else{
			if(PILOTE_SPI.tmp_acmd>32)
    189a:	91 32       	cpi	r25, 0x21	; 33
    189c:	18 f0       	brcs	.+6      	; 0x18a4 <Acomoda_5X32_DATE+0x30e>
			PILOTE_SPI.tmp_acmd=32;
    189e:	90 e2       	ldi	r25, 0x20	; 32
    18a0:	90 93 a5 00 	sts	0x00A5, r25	; 0x8000a5 <PILOTE_SPI+0x25>
			
			PILOTE_SPI.OUT_BARRIDO[1]= PILOTE_SPI.OUT_BARRIDO[1]>>(32-PILOTE_SPI.tmp_acmd);
    18a4:	e0 e8       	ldi	r30, 0x80	; 128
    18a6:	f0 e0       	ldi	r31, 0x00	; 0
    18a8:	95 a1       	ldd	r25, Z+37	; 0x25
    18aa:	20 e2       	ldi	r18, 0x20	; 32
    18ac:	30 e0       	ldi	r19, 0x00	; 0
    18ae:	29 1b       	sub	r18, r25
    18b0:	31 09       	sbc	r19, r1
    18b2:	4f ef       	ldi	r20, 0xFF	; 255
    18b4:	5f ef       	ldi	r21, 0xFF	; 255
    18b6:	ba 01       	movw	r22, r20
    18b8:	04 c0       	rjmp	.+8      	; 0x18c2 <Acomoda_5X32_DATE+0x32c>
    18ba:	76 95       	lsr	r23
    18bc:	67 95       	ror	r22
    18be:	57 95       	ror	r21
    18c0:	47 95       	ror	r20
    18c2:	2a 95       	dec	r18
    18c4:	d2 f7       	brpl	.-12     	; 0x18ba <Acomoda_5X32_DATE+0x324>
    18c6:	45 83       	std	Z+5, r20	; 0x05
    18c8:	56 83       	std	Z+6, r21	; 0x06
    18ca:	67 83       	std	Z+7, r22	; 0x07
    18cc:	70 87       	std	Z+8, r23	; 0x08
    18ce:	e2 c1       	rjmp	.+964    	; 0x1c94 <Acomoda_5X32_DATE+0x6fe>
		}

	}
	else
	{
		if(PILOTE_SPI.OUT_BARRIDO[1]!=0)
    18d0:	40 91 85 00 	lds	r20, 0x0085	; 0x800085 <PILOTE_SPI+0x5>
    18d4:	50 91 86 00 	lds	r21, 0x0086	; 0x800086 <PILOTE_SPI+0x6>
    18d8:	60 91 87 00 	lds	r22, 0x0087	; 0x800087 <PILOTE_SPI+0x7>
    18dc:	70 91 88 00 	lds	r23, 0x0088	; 0x800088 <PILOTE_SPI+0x8>
    18e0:	45 2b       	or	r20, r21
    18e2:	46 2b       	or	r20, r22
    18e4:	47 2b       	or	r20, r23
    18e6:	41 f0       	breq	.+16     	; 0x18f8 <Acomoda_5X32_DATE+0x362>
		PILOTE_SPI.OUT_BARRIDO[1]=0;
    18e8:	10 92 85 00 	sts	0x0085, r1	; 0x800085 <PILOTE_SPI+0x5>
    18ec:	10 92 86 00 	sts	0x0086, r1	; 0x800086 <PILOTE_SPI+0x6>
    18f0:	10 92 87 00 	sts	0x0087, r1	; 0x800087 <PILOTE_SPI+0x7>
    18f4:	10 92 88 00 	sts	0x0088, r1	; 0x800088 <PILOTE_SPI+0x8>
	
	/*****OUT_BARRIDO[2]*///////////
	
	PILOTE_SPI.tmp_acmd=PILOTE_HORLOGE.date;

	if(PILOTE_SPI.tmp_acmd<19)
    18f8:	83 31       	cpi	r24, 0x13	; 19
    18fa:	10 f5       	brcc	.+68     	; 0x1940 <Acomoda_5X32_DATE+0x3aa>
	{
	//	if(PILOTE_SPI.OUT_BARRIDO[2]!=CLR_UP)
		PILOTE_SPI.OUT_BARRIDO[2]= CLR_UP;
	
	if(PILOTE_SPI.tmp_acmd==0)
    18fc:	81 11       	cpse	r24, r1
    18fe:	09 c0       	rjmp	.+18     	; 0x1912 <Acomoda_5X32_DATE+0x37c>
	{
		PILOTE_SPI.OUT_BARRIDO[2]=0;
    1900:	10 92 89 00 	sts	0x0089, r1	; 0x800089 <PILOTE_SPI+0x9>
    1904:	10 92 8a 00 	sts	0x008A, r1	; 0x80008a <PILOTE_SPI+0xa>
    1908:	10 92 8b 00 	sts	0x008B, r1	; 0x80008b <PILOTE_SPI+0xb>
    190c:	10 92 8c 00 	sts	0x008C, r1	; 0x80008c <PILOTE_SPI+0xc>
    1910:	23 c0       	rjmp	.+70     	; 0x1958 <Acomoda_5X32_DATE+0x3c2>
		else
		{	
		
		PILOTE_SPI.tmp_acmd = 19-PILOTE_SPI.tmp_acmd;
		PILOTE_SPI.OUT_BARRIDO[2] = PILOTE_SPI.OUT_BARRIDO[2]>>PILOTE_SPI.tmp_acmd;
		PILOTE_SPI.OUT_BARRIDO[2]&=  0xFFFFE000;
    1912:	23 e1       	ldi	r18, 0x13	; 19
    1914:	28 1b       	sub	r18, r24
    1916:	8f ef       	ldi	r24, 0xFF	; 255
    1918:	9f ef       	ldi	r25, 0xFF	; 255
    191a:	dc 01       	movw	r26, r24
    191c:	04 c0       	rjmp	.+8      	; 0x1926 <Acomoda_5X32_DATE+0x390>
    191e:	b6 95       	lsr	r27
    1920:	a7 95       	ror	r26
    1922:	97 95       	ror	r25
    1924:	87 95       	ror	r24
    1926:	2a 95       	dec	r18
    1928:	d2 f7       	brpl	.-12     	; 0x191e <Acomoda_5X32_DATE+0x388>
    192a:	88 27       	eor	r24, r24
    192c:	90 7e       	andi	r25, 0xE0	; 224
    192e:	80 93 89 00 	sts	0x0089, r24	; 0x800089 <PILOTE_SPI+0x9>
    1932:	90 93 8a 00 	sts	0x008A, r25	; 0x80008a <PILOTE_SPI+0xa>
    1936:	a0 93 8b 00 	sts	0x008B, r26	; 0x80008b <PILOTE_SPI+0xb>
    193a:	b0 93 8c 00 	sts	0x008C, r27	; 0x80008c <PILOTE_SPI+0xc>
    193e:	0c c0       	rjmp	.+24     	; 0x1958 <Acomoda_5X32_DATE+0x3c2>
	}

	else
	{		
		
		PILOTE_SPI.OUT_BARRIDO[2]=0xFFFFE000;
    1940:	80 e0       	ldi	r24, 0x00	; 0
    1942:	90 ee       	ldi	r25, 0xE0	; 224
    1944:	af ef       	ldi	r26, 0xFF	; 255
    1946:	bf ef       	ldi	r27, 0xFF	; 255
    1948:	80 93 89 00 	sts	0x0089, r24	; 0x800089 <PILOTE_SPI+0x9>
    194c:	90 93 8a 00 	sts	0x008A, r25	; 0x80008a <PILOTE_SPI+0xa>
    1950:	a0 93 8b 00 	sts	0x008B, r26	; 0x80008b <PILOTE_SPI+0xb>
    1954:	b0 93 8c 00 	sts	0x008C, r27	; 0x80008c <PILOTE_SPI+0xc>
		
	}	
	
	/*************************acomoda año*////////////////////
	
	PILOTE_SPI.tmp_acmd =  PILOTE_HORLOGE.year;
    1958:	80 91 66 00 	lds	r24, 0x0066	; 0x800066 <PILOTE_HORLOGE+0x5>
	if(PILOTE_SPI.tmp_acmd==0)
    195c:	81 11       	cpse	r24, r1
    195e:	71 c1       	rjmp	.+738    	; 0x1c42 <Acomoda_5X32_DATE+0x6ac>
	{
		if(MODE_DEPLOYE.selectionner_mode==PRG_YR)
    1960:	90 91 b0 00 	lds	r25, 0x00B0	; 0x8000b0 <MODE_DEPLOYE>
    1964:	96 30       	cpi	r25, 0x06	; 6
    1966:	41 f4       	brne	.+16     	; 0x1978 <Acomoda_5X32_DATE+0x3e2>
		{
			if(PILOTE_SPI.checa_parpadea_12AM)
    1968:	90 91 aa 00 	lds	r25, 0x00AA	; 0x8000aa <PILOTE_SPI+0x2a>
    196c:	91 11       	cpse	r25, r1
    196e:	50 c0       	rjmp	.+160    	; 0x1a10 <Acomoda_5X32_DATE+0x47a>
			{
				PILOTE_SPI.tmp_acmd=0;
			}
			else      // if(PILOTE_SPI.tmp_acmd==0)
			
			PILOTE_SPI.tmp_acmd=60;
    1970:	9c e3       	ldi	r25, 0x3C	; 60
    1972:	90 93 a5 00 	sts	0x00A5, r25	; 0x8000a5 <PILOTE_SPI+0x25>
    1976:	62 c1       	rjmp	.+708    	; 0x1c3c <Acomoda_5X32_DATE+0x6a6>
			
		}
		else
		PILOTE_SPI.tmp_acmd=60;
    1978:	9c e3       	ldi	r25, 0x3C	; 60
    197a:	90 93 a5 00 	sts	0x00A5, r25	; 0x8000a5 <PILOTE_SPI+0x25>
    197e:	5e c1       	rjmp	.+700    	; 0x1c3c <Acomoda_5X32_DATE+0x6a6>
	}
	
	if(PILOTE_SPI.tmp_acmd>47)
    1980:	98 2f       	mov	r25, r24
	{
		PILOTE_SPI.tmp_acmd=PILOTE_SPI.tmp_acmd-47;
    1982:	9f 52       	subi	r25, 0x2F	; 47
		//if(PILOTE_SPI.temp_32_SH!=CLR_UP)
		PILOTE_SPI.temp_32_SH=CLR_UP;
    1984:	4f ef       	ldi	r20, 0xFF	; 255
    1986:	5f ef       	ldi	r21, 0xFF	; 255
    1988:	ba 01       	movw	r22, r20
    198a:	40 93 a6 00 	sts	0x00A6, r20	; 0x8000a6 <PILOTE_SPI+0x26>
    198e:	50 93 a7 00 	sts	0x00A7, r21	; 0x8000a7 <PILOTE_SPI+0x27>
    1992:	60 93 a8 00 	sts	0x00A8, r22	; 0x8000a8 <PILOTE_SPI+0x28>
    1996:	70 93 a9 00 	sts	0x00A9, r23	; 0x8000a9 <PILOTE_SPI+0x29>
		
		if(PILOTE_SPI.tmp_acmd==13){// es igual a 60
    199a:	9d 30       	cpi	r25, 0x0D	; 13
    199c:	79 f4       	brne	.+30     	; 0x19bc <Acomoda_5X32_DATE+0x426>
			PILOTE_SPI.OUT_BARRIDO[2]|=0xFFF;
    199e:	e0 e8       	ldi	r30, 0x80	; 128
    19a0:	f0 e0       	ldi	r31, 0x00	; 0
    19a2:	41 85       	ldd	r20, Z+9	; 0x09
    19a4:	52 85       	ldd	r21, Z+10	; 0x0a
    19a6:	63 85       	ldd	r22, Z+11	; 0x0b
    19a8:	74 85       	ldd	r23, Z+12	; 0x0c
    19aa:	4f 6f       	ori	r20, 0xFF	; 255
    19ac:	5f 60       	ori	r21, 0x0F	; 15
    19ae:	41 87       	std	Z+9, r20	; 0x09
    19b0:	52 87       	std	Z+10, r21	; 0x0a
    19b2:	63 87       	std	Z+11, r22	; 0x0b
    19b4:	74 87       	std	Z+12, r23	; 0x0c
		}		
	}
	/******************************************************************************/
	/**   OUTBARRIDO[3]                                                ************/

	if(PILOTE_HORLOGE.year==0)
    19b6:	88 23       	and	r24, r24
    19b8:	59 f1       	breq	.+86     	; 0x1a10 <Acomoda_5X32_DATE+0x47a>
    19ba:	3a c0       	rjmp	.+116    	; 0x1a30 <Acomoda_5X32_DATE+0x49a>
		if(PILOTE_SPI.tmp_acmd==13){// es igual a 60
			PILOTE_SPI.OUT_BARRIDO[2]|=0xFFF;
		}
		else// es igual a 60
		{
			PILOTE_SPI.temp_32_SH= PILOTE_SPI.temp_32_SH>>(32-PILOTE_SPI.tmp_acmd);
    19bc:	20 e2       	ldi	r18, 0x20	; 32
    19be:	30 e0       	ldi	r19, 0x00	; 0
    19c0:	29 1b       	sub	r18, r25
    19c2:	31 09       	sbc	r19, r1
    19c4:	4f ef       	ldi	r20, 0xFF	; 255
    19c6:	5f ef       	ldi	r21, 0xFF	; 255
    19c8:	ba 01       	movw	r22, r20
    19ca:	04 c0       	rjmp	.+8      	; 0x19d4 <Acomoda_5X32_DATE+0x43e>
    19cc:	76 95       	lsr	r23
    19ce:	67 95       	ror	r22
    19d0:	57 95       	ror	r21
    19d2:	47 95       	ror	r20
    19d4:	2a 95       	dec	r18
    19d6:	d2 f7       	brpl	.-12     	; 0x19cc <Acomoda_5X32_DATE+0x436>
    19d8:	e0 e8       	ldi	r30, 0x80	; 128
    19da:	f0 e0       	ldi	r31, 0x00	; 0
    19dc:	46 a3       	std	Z+38, r20	; 0x26
    19de:	57 a3       	std	Z+39, r21	; 0x27
    19e0:	60 a7       	std	Z+40, r22	; 0x28
    19e2:	71 a7       	std	Z+41, r23	; 0x29
			//PILOTE_SPI.OUT_BARRIDO[2]=0;
			PILOTE_SPI.OUT_BARRIDO[2]|=PILOTE_SPI.temp_32_SH;
    19e4:	01 85       	ldd	r16, Z+9	; 0x09
    19e6:	12 85       	ldd	r17, Z+10	; 0x0a
    19e8:	23 85       	ldd	r18, Z+11	; 0x0b
    19ea:	34 85       	ldd	r19, Z+12	; 0x0c
    19ec:	04 2b       	or	r16, r20
    19ee:	15 2b       	or	r17, r21
    19f0:	26 2b       	or	r18, r22
    19f2:	37 2b       	or	r19, r23
    19f4:	01 87       	std	Z+9, r16	; 0x09
    19f6:	12 87       	std	Z+10, r17	; 0x0a
    19f8:	23 87       	std	Z+11, r18	; 0x0b
    19fa:	34 87       	std	Z+12, r19	; 0x0c
			
			if(MODE_DEPLOYE.selectionner_mode==PRG_YR)
    19fc:	90 91 b0 00 	lds	r25, 0x00B0	; 0x8000b0 <MODE_DEPLOYE>
    1a00:	96 30       	cpi	r25, 0x06	; 6
    1a02:	09 f0       	breq	.+2      	; 0x1a06 <Acomoda_5X32_DATE+0x470>
    1a04:	40 c1       	rjmp	.+640    	; 0x1c86 <Acomoda_5X32_DATE+0x6f0>
			{
				aux_rev_sec = PILOTE_SPI.checa_parpadea_12AM ? 0xFFFFE000 :  0X1FFF;
    1a06:	90 91 aa 00 	lds	r25, 0x00AA	; 0x8000aa <PILOTE_SPI+0x2a>
    1a0a:	91 11       	cpse	r25, r1
    1a0c:	1e c1       	rjmp	.+572    	; 0x1c4a <Acomoda_5X32_DATE+0x6b4>
    1a0e:	2b c1       	rjmp	.+598    	; 0x1c66 <Acomoda_5X32_DATE+0x6d0>
	/******************************************************************************/
	/**   OUTBARRIDO[3]                                                ************/

	if(PILOTE_HORLOGE.year==0)
	{
		if(MODE_DEPLOYE.selectionner_mode==PRG_YR)
    1a10:	80 91 b0 00 	lds	r24, 0x00B0	; 0x8000b0 <MODE_DEPLOYE>
    1a14:	86 30       	cpi	r24, 0x06	; 6
    1a16:	41 f4       	brne	.+16     	; 0x1a28 <Acomoda_5X32_DATE+0x492>
		{
			if(PILOTE_SPI.checa_parpadea_12AM)
    1a18:	80 91 aa 00 	lds	r24, 0x00AA	; 0x8000aa <PILOTE_SPI+0x2a>
    1a1c:	81 11       	cpse	r24, r1
    1a1e:	43 c0       	rjmp	.+134    	; 0x1aa6 <Acomoda_5X32_DATE+0x510>
			{
				PILOTE_SPI.tmp_acmd=0;
			}
			else
			PILOTE_SPI.tmp_acmd = NUM_MIN-1;
    1a20:	8b e3       	ldi	r24, 0x3B	; 59
    1a22:	80 93 a5 00 	sts	0x00A5, r24	; 0x8000a5 <PILOTE_SPI+0x25>
    1a26:	33 c1       	rjmp	.+614    	; 0x1c8e <Acomoda_5X32_DATE+0x6f8>
			
		}
		else
		PILOTE_SPI.tmp_acmd = NUM_MIN-1;
    1a28:	8b e3       	ldi	r24, 0x3B	; 59
    1a2a:	80 93 a5 00 	sts	0x00A5, r24	; 0x8000a5 <PILOTE_SPI+0x25>
    1a2e:	2f c1       	rjmp	.+606    	; 0x1c8e <Acomoda_5X32_DATE+0x6f8>
	else
	{
		PILOTE_SPI.tmp_acmd=PILOTE_HORLOGE.year;
	}

	if(PILOTE_SPI.tmp_acmd>15)
    1a30:	80 31       	cpi	r24, 0x10	; 16
    1a32:	c8 f1       	brcs	.+114    	; 0x1aa6 <Acomoda_5X32_DATE+0x510>
	{

		PILOTE_SPI.tmp_acmd=PILOTE_SPI.tmp_acmd-15;
    1a34:	8f 50       	subi	r24, 0x0F	; 15
    1a36:	80 93 a5 00 	sts	0x00A5, r24	; 0x8000a5 <PILOTE_SPI+0x25>
		//if(PILOTE_SPI.OUT_BARRIDO[3]!= CLR_UP)
		PILOTE_SPI.OUT_BARRIDO[3]=  CLR_UP;
		
		if(PILOTE_SPI.tmp_acmd>32)
    1a3a:	81 32       	cpi	r24, 0x21	; 33
    1a3c:	18 f0       	brcs	.+6      	; 0x1a44 <Acomoda_5X32_DATE+0x4ae>
		PILOTE_SPI.tmp_acmd=32;
    1a3e:	80 e2       	ldi	r24, 0x20	; 32
    1a40:	80 93 a5 00 	sts	0x00A5, r24	; 0x8000a5 <PILOTE_SPI+0x25>
		PILOTE_SPI.OUT_BARRIDO[3] = PILOTE_SPI.OUT_BARRIDO[3]>>(32-PILOTE_SPI.tmp_acmd);
    1a44:	e0 e8       	ldi	r30, 0x80	; 128
    1a46:	f0 e0       	ldi	r31, 0x00	; 0
    1a48:	85 a1       	ldd	r24, Z+37	; 0x25
    1a4a:	20 e2       	ldi	r18, 0x20	; 32
    1a4c:	30 e0       	ldi	r19, 0x00	; 0
    1a4e:	28 1b       	sub	r18, r24
    1a50:	31 09       	sbc	r19, r1
    1a52:	8f ef       	ldi	r24, 0xFF	; 255
    1a54:	9f ef       	ldi	r25, 0xFF	; 255
    1a56:	dc 01       	movw	r26, r24
    1a58:	04 c0       	rjmp	.+8      	; 0x1a62 <Acomoda_5X32_DATE+0x4cc>
    1a5a:	b6 95       	lsr	r27
    1a5c:	a7 95       	ror	r26
    1a5e:	97 95       	ror	r25
    1a60:	87 95       	ror	r24
    1a62:	2a 95       	dec	r18
    1a64:	d2 f7       	brpl	.-12     	; 0x1a5a <Acomoda_5X32_DATE+0x4c4>
    1a66:	85 87       	std	Z+13, r24	; 0x0d
    1a68:	96 87       	std	Z+14, r25	; 0x0e
    1a6a:	a7 87       	std	Z+15, r26	; 0x0f
    1a6c:	b0 8b       	std	Z+16, r27	; 0x10
		
		if(MODE_DEPLOYE.selectionner_mode==PRG_YR)
    1a6e:	20 91 b0 00 	lds	r18, 0x00B0	; 0x8000b0 <MODE_DEPLOYE>
    1a72:	26 30       	cpi	r18, 0x06	; 6
    1a74:	09 f0       	breq	.+2      	; 0x1a78 <Acomoda_5X32_DATE+0x4e2>
    1a76:	4d c0       	rjmp	.+154    	; 0x1b12 <Acomoda_5X32_DATE+0x57c>
		{
			aux_rev_sec = PILOTE_SPI.checa_parpadea_12AM ? 0 :PILOTE_SPI.OUT_BARRIDO[3];
    1a78:	20 91 aa 00 	lds	r18, 0x00AA	; 0x8000aa <PILOTE_SPI+0x2a>
    1a7c:	21 11       	cpse	r18, r1
    1a7e:	03 c0       	rjmp	.+6      	; 0x1a86 <Acomoda_5X32_DATE+0x4f0>
    1a80:	ac 01       	movw	r20, r24
    1a82:	bd 01       	movw	r22, r26
    1a84:	03 c0       	rjmp	.+6      	; 0x1a8c <Acomoda_5X32_DATE+0x4f6>
    1a86:	40 e0       	ldi	r20, 0x00	; 0
    1a88:	50 e0       	ldi	r21, 0x00	; 0
    1a8a:	ba 01       	movw	r22, r20
			PILOTE_SPI.OUT_BARRIDO[3] |= aux_rev_sec;
    1a8c:	84 2b       	or	r24, r20
    1a8e:	95 2b       	or	r25, r21
    1a90:	a6 2b       	or	r26, r22
    1a92:	b7 2b       	or	r27, r23
    1a94:	80 93 8d 00 	sts	0x008D, r24	; 0x80008d <PILOTE_SPI+0xd>
    1a98:	90 93 8e 00 	sts	0x008E, r25	; 0x80008e <PILOTE_SPI+0xe>
    1a9c:	a0 93 8f 00 	sts	0x008F, r26	; 0x80008f <PILOTE_SPI+0xf>
    1aa0:	b0 93 90 00 	sts	0x0090, r27	; 0x800090 <PILOTE_SPI+0x10>
    1aa4:	36 c0       	rjmp	.+108    	; 0x1b12 <Acomoda_5X32_DATE+0x57c>
		}
		
	}
	else
	{
		if(PILOTE_SPI.OUT_BARRIDO[3]!=0)
    1aa6:	80 91 8d 00 	lds	r24, 0x008D	; 0x80008d <PILOTE_SPI+0xd>
    1aaa:	90 91 8e 00 	lds	r25, 0x008E	; 0x80008e <PILOTE_SPI+0xe>
    1aae:	a0 91 8f 00 	lds	r26, 0x008F	; 0x80008f <PILOTE_SPI+0xf>
    1ab2:	b0 91 90 00 	lds	r27, 0x0090	; 0x800090 <PILOTE_SPI+0x10>
    1ab6:	89 2b       	or	r24, r25
    1ab8:	8a 2b       	or	r24, r26
    1aba:	8b 2b       	or	r24, r27
    1abc:	41 f0       	breq	.+16     	; 0x1ace <Acomoda_5X32_DATE+0x538>
		PILOTE_SPI.OUT_BARRIDO[3]=0;
    1abe:	10 92 8d 00 	sts	0x008D, r1	; 0x80008d <PILOTE_SPI+0xd>
    1ac2:	10 92 8e 00 	sts	0x008E, r1	; 0x80008e <PILOTE_SPI+0xe>
    1ac6:	10 92 8f 00 	sts	0x008F, r1	; 0x80008f <PILOTE_SPI+0xf>
    1aca:	10 92 90 00 	sts	0x0090, r1	; 0x800090 <PILOTE_SPI+0x10>
		
		if(MODE_DEPLOYE.selectionner_mode==PRG_YR)
    1ace:	80 91 b0 00 	lds	r24, 0x00B0	; 0x8000b0 <MODE_DEPLOYE>
    1ad2:	86 30       	cpi	r24, 0x06	; 6
    1ad4:	f1 f4       	brne	.+60     	; 0x1b12 <Acomoda_5X32_DATE+0x57c>
		{
			aux_rev_sec = PILOTE_SPI.checa_parpadea_12AM ? 0 :PILOTE_SPI.OUT_BARRIDO[3];
    1ad6:	80 91 aa 00 	lds	r24, 0x00AA	; 0x8000aa <PILOTE_SPI+0x2a>
    1ada:	81 11       	cpse	r24, r1
    1adc:	09 c0       	rjmp	.+18     	; 0x1af0 <Acomoda_5X32_DATE+0x55a>
    1ade:	80 91 8d 00 	lds	r24, 0x008D	; 0x80008d <PILOTE_SPI+0xd>
    1ae2:	90 91 8e 00 	lds	r25, 0x008E	; 0x80008e <PILOTE_SPI+0xe>
    1ae6:	a0 91 8f 00 	lds	r26, 0x008F	; 0x80008f <PILOTE_SPI+0xf>
    1aea:	b0 91 90 00 	lds	r27, 0x0090	; 0x800090 <PILOTE_SPI+0x10>
    1aee:	03 c0       	rjmp	.+6      	; 0x1af6 <Acomoda_5X32_DATE+0x560>
    1af0:	80 e0       	ldi	r24, 0x00	; 0
    1af2:	90 e0       	ldi	r25, 0x00	; 0
    1af4:	dc 01       	movw	r26, r24
			PILOTE_SPI.OUT_BARRIDO[3] |= aux_rev_sec;
    1af6:	e0 e8       	ldi	r30, 0x80	; 128
    1af8:	f0 e0       	ldi	r31, 0x00	; 0
    1afa:	45 85       	ldd	r20, Z+13	; 0x0d
    1afc:	56 85       	ldd	r21, Z+14	; 0x0e
    1afe:	67 85       	ldd	r22, Z+15	; 0x0f
    1b00:	70 89       	ldd	r23, Z+16	; 0x10
    1b02:	84 2b       	or	r24, r20
    1b04:	95 2b       	or	r25, r21
    1b06:	a6 2b       	or	r26, r22
    1b08:	b7 2b       	or	r27, r23
    1b0a:	85 87       	std	Z+13, r24	; 0x0d
    1b0c:	96 87       	std	Z+14, r25	; 0x0e
    1b0e:	a7 87       	std	Z+15, r26	; 0x0f
    1b10:	b0 8b       	std	Z+16, r27	; 0x10
		}
	}
	/******************************************************************************/
	/**   OUTBARRIDO[4]                                                ************/
	
	PILOTE_SPI.tmp_acmd=PILOTE_HORLOGE.year;
    1b12:	80 91 66 00 	lds	r24, 0x0066	; 0x800066 <PILOTE_HORLOGE+0x5>
    1b16:	80 93 a5 00 	sts	0x00A5, r24	; 0x8000a5 <PILOTE_SPI+0x25>
	
	if(PILOTE_HORLOGE.year==0x00)
    1b1a:	81 11       	cpse	r24, r1
    1b1c:	04 c0       	rjmp	.+8      	; 0x1b26 <Acomoda_5X32_DATE+0x590>
	{
		PILOTE_SPI.tmp_acmd=60;
    1b1e:	8c e3       	ldi	r24, 0x3C	; 60
    1b20:	80 93 a5 00 	sts	0x00A5, r24	; 0x8000a5 <PILOTE_SPI+0x25>
    1b24:	65 c0       	rjmp	.+202    	; 0x1bf0 <Acomoda_5X32_DATE+0x65a>
	}

	if(PILOTE_SPI.tmp_acmd<=15)
    1b26:	80 31       	cpi	r24, 0x10	; 16
    1b28:	d8 f5       	brcc	.+118    	; 0x1ba0 <Acomoda_5X32_DATE+0x60a>
		//if(PILOTE_SPI.OUT_BARRIDO[4]!=CLR_UP)
		PILOTE_SPI.OUT_BARRIDO[4]=CLR_UP;                         //      1111 1111 1000 0000 0000 0000 0000 0000
		                                                          //      0000 0000 0000 0000 0000 0000 0000 0000
		PILOTE_SPI.OUT_BARRIDO[4]=PILOTE_SPI.OUT_BARRIDO[4]>>(16-PILOTE_SPI.tmp_acmd);
		PILOTE_SPI.OUT_BARRIDO[4]=PILOTE_SPI.OUT_BARRIDO[4]<<(1);
		PILOTE_SPI.OUT_BARRIDO[4]&=  0xFFFE0000;
    1b2a:	20 e1       	ldi	r18, 0x10	; 16
    1b2c:	30 e0       	ldi	r19, 0x00	; 0
    1b2e:	28 1b       	sub	r18, r24
    1b30:	31 09       	sbc	r19, r1
    1b32:	8f ef       	ldi	r24, 0xFF	; 255
    1b34:	9f ef       	ldi	r25, 0xFF	; 255
    1b36:	dc 01       	movw	r26, r24
    1b38:	04 c0       	rjmp	.+8      	; 0x1b42 <Acomoda_5X32_DATE+0x5ac>
    1b3a:	b6 95       	lsr	r27
    1b3c:	a7 95       	ror	r26
    1b3e:	97 95       	ror	r25
    1b40:	87 95       	ror	r24
    1b42:	2a 95       	dec	r18
    1b44:	d2 f7       	brpl	.-12     	; 0x1b3a <Acomoda_5X32_DATE+0x5a4>
    1b46:	88 0f       	add	r24, r24
    1b48:	99 1f       	adc	r25, r25
    1b4a:	aa 1f       	adc	r26, r26
    1b4c:	bb 1f       	adc	r27, r27
    1b4e:	88 27       	eor	r24, r24
    1b50:	99 27       	eor	r25, r25
    1b52:	ae 7f       	andi	r26, 0xFE	; 254
    1b54:	80 93 91 00 	sts	0x0091, r24	; 0x800091 <PILOTE_SPI+0x11>
    1b58:	90 93 92 00 	sts	0x0092, r25	; 0x800092 <PILOTE_SPI+0x12>
    1b5c:	a0 93 93 00 	sts	0x0093, r26	; 0x800093 <PILOTE_SPI+0x13>
    1b60:	b0 93 94 00 	sts	0x0094, r27	; 0x800094 <PILOTE_SPI+0x14>
		
		if(MODE_DEPLOYE.selectionner_mode==PRG_YR)
    1b64:	20 91 b0 00 	lds	r18, 0x00B0	; 0x8000b0 <MODE_DEPLOYE>
    1b68:	26 30       	cpi	r18, 0x06	; 6
    1b6a:	09 f0       	breq	.+2      	; 0x1b6e <Acomoda_5X32_DATE+0x5d8>
    1b6c:	97 c0       	rjmp	.+302    	; 0x1c9c <Acomoda_5X32_DATE+0x706>
		{
			aux_rev_sec= PILOTE_SPI.checa_parpadea_12AM ? 0 : 0xFFFE0000;
    1b6e:	20 91 aa 00 	lds	r18, 0x00AA	; 0x8000aa <PILOTE_SPI+0x2a>
    1b72:	21 11       	cpse	r18, r1
    1b74:	05 c0       	rjmp	.+10     	; 0x1b80 <Acomoda_5X32_DATE+0x5ea>
    1b76:	40 e0       	ldi	r20, 0x00	; 0
    1b78:	50 e0       	ldi	r21, 0x00	; 0
    1b7a:	6e ef       	ldi	r22, 0xFE	; 254
    1b7c:	7f ef       	ldi	r23, 0xFF	; 255
    1b7e:	03 c0       	rjmp	.+6      	; 0x1b86 <Acomoda_5X32_DATE+0x5f0>
    1b80:	40 e0       	ldi	r20, 0x00	; 0
    1b82:	50 e0       	ldi	r21, 0x00	; 0
    1b84:	ba 01       	movw	r22, r20
			PILOTE_SPI.OUT_BARRIDO[4] &= aux_rev_sec;
    1b86:	84 23       	and	r24, r20
    1b88:	95 23       	and	r25, r21
    1b8a:	a6 23       	and	r26, r22
    1b8c:	b7 23       	and	r27, r23
    1b8e:	80 93 91 00 	sts	0x0091, r24	; 0x800091 <PILOTE_SPI+0x11>
    1b92:	90 93 92 00 	sts	0x0092, r25	; 0x800092 <PILOTE_SPI+0x12>
    1b96:	a0 93 93 00 	sts	0x0093, r26	; 0x800093 <PILOTE_SPI+0x13>
    1b9a:	b0 93 94 00 	sts	0x0094, r27	; 0x800094 <PILOTE_SPI+0x14>
    1b9e:	7e c0       	rjmp	.+252    	; 0x1c9c <Acomoda_5X32_DATE+0x706>
	}
	
	else
	
	{
		if(PILOTE_SPI.tmp_acmd!=60)
    1ba0:	8c 33       	cpi	r24, 0x3C	; 60
    1ba2:	31 f1       	breq	.+76     	; 0x1bf0 <Acomoda_5X32_DATE+0x65a>
		{
			PILOTE_SPI.OUT_BARRIDO[4]= 0XFFFE0000;
    1ba4:	80 e0       	ldi	r24, 0x00	; 0
    1ba6:	90 e0       	ldi	r25, 0x00	; 0
    1ba8:	ae ef       	ldi	r26, 0xFE	; 254
    1baa:	bf ef       	ldi	r27, 0xFF	; 255
    1bac:	80 93 91 00 	sts	0x0091, r24	; 0x800091 <PILOTE_SPI+0x11>
    1bb0:	90 93 92 00 	sts	0x0092, r25	; 0x800092 <PILOTE_SPI+0x12>
    1bb4:	a0 93 93 00 	sts	0x0093, r26	; 0x800093 <PILOTE_SPI+0x13>
    1bb8:	b0 93 94 00 	sts	0x0094, r27	; 0x800094 <PILOTE_SPI+0x14>
			
			if(MODE_DEPLOYE.selectionner_mode==PRG_YR)
    1bbc:	80 91 b0 00 	lds	r24, 0x00B0	; 0x8000b0 <MODE_DEPLOYE>
    1bc0:	86 30       	cpi	r24, 0x06	; 6
    1bc2:	09 f0       	breq	.+2      	; 0x1bc6 <Acomoda_5X32_DATE+0x630>
    1bc4:	6b c0       	rjmp	.+214    	; 0x1c9c <Acomoda_5X32_DATE+0x706>
			{
				
				PILOTE_SPI.OUT_BARRIDO[4] = PILOTE_SPI.checa_parpadea_12AM ? 0 : 0xFFFE0000;
    1bc6:	80 91 aa 00 	lds	r24, 0x00AA	; 0x8000aa <PILOTE_SPI+0x2a>
    1bca:	81 11       	cpse	r24, r1
    1bcc:	05 c0       	rjmp	.+10     	; 0x1bd8 <Acomoda_5X32_DATE+0x642>
    1bce:	80 e0       	ldi	r24, 0x00	; 0
    1bd0:	90 e0       	ldi	r25, 0x00	; 0
    1bd2:	ae ef       	ldi	r26, 0xFE	; 254
    1bd4:	bf ef       	ldi	r27, 0xFF	; 255
    1bd6:	03 c0       	rjmp	.+6      	; 0x1bde <Acomoda_5X32_DATE+0x648>
    1bd8:	80 e0       	ldi	r24, 0x00	; 0
    1bda:	90 e0       	ldi	r25, 0x00	; 0
    1bdc:	dc 01       	movw	r26, r24
    1bde:	80 93 91 00 	sts	0x0091, r24	; 0x800091 <PILOTE_SPI+0x11>
    1be2:	90 93 92 00 	sts	0x0092, r25	; 0x800092 <PILOTE_SPI+0x12>
    1be6:	a0 93 93 00 	sts	0x0093, r26	; 0x800093 <PILOTE_SPI+0x13>
    1bea:	b0 93 94 00 	sts	0x0094, r27	; 0x800094 <PILOTE_SPI+0x14>
    1bee:	56 c0       	rjmp	.+172    	; 0x1c9c <Acomoda_5X32_DATE+0x706>
			}
			
		}
		else
		{
			PILOTE_SPI.OUT_BARRIDO[4]= 0xFFFF0000;
    1bf0:	80 e0       	ldi	r24, 0x00	; 0
    1bf2:	90 e0       	ldi	r25, 0x00	; 0
    1bf4:	af ef       	ldi	r26, 0xFF	; 255
    1bf6:	bf ef       	ldi	r27, 0xFF	; 255
    1bf8:	80 93 91 00 	sts	0x0091, r24	; 0x800091 <PILOTE_SPI+0x11>
    1bfc:	90 93 92 00 	sts	0x0092, r25	; 0x800092 <PILOTE_SPI+0x12>
    1c00:	a0 93 93 00 	sts	0x0093, r26	; 0x800093 <PILOTE_SPI+0x13>
    1c04:	b0 93 94 00 	sts	0x0094, r27	; 0x800094 <PILOTE_SPI+0x14>
			if(MODE_DEPLOYE.selectionner_mode==PRG_YR)
    1c08:	80 91 b0 00 	lds	r24, 0x00B0	; 0x8000b0 <MODE_DEPLOYE>
    1c0c:	86 30       	cpi	r24, 0x06	; 6
    1c0e:	09 f0       	breq	.+2      	; 0x1c12 <Acomoda_5X32_DATE+0x67c>
    1c10:	45 c0       	rjmp	.+138    	; 0x1c9c <Acomoda_5X32_DATE+0x706>
			{
				
				PILOTE_SPI.OUT_BARRIDO[4] = PILOTE_SPI.checa_parpadea_12AM ? 0 : 0xFFFF0000;				
    1c12:	80 91 aa 00 	lds	r24, 0x00AA	; 0x8000aa <PILOTE_SPI+0x2a>
    1c16:	81 11       	cpse	r24, r1
    1c18:	05 c0       	rjmp	.+10     	; 0x1c24 <Acomoda_5X32_DATE+0x68e>
    1c1a:	80 e0       	ldi	r24, 0x00	; 0
    1c1c:	90 e0       	ldi	r25, 0x00	; 0
    1c1e:	af ef       	ldi	r26, 0xFF	; 255
    1c20:	bf ef       	ldi	r27, 0xFF	; 255
    1c22:	03 c0       	rjmp	.+6      	; 0x1c2a <Acomoda_5X32_DATE+0x694>
    1c24:	80 e0       	ldi	r24, 0x00	; 0
    1c26:	90 e0       	ldi	r25, 0x00	; 0
    1c28:	dc 01       	movw	r26, r24
    1c2a:	80 93 91 00 	sts	0x0091, r24	; 0x800091 <PILOTE_SPI+0x11>
    1c2e:	90 93 92 00 	sts	0x0092, r25	; 0x800092 <PILOTE_SPI+0x12>
    1c32:	a0 93 93 00 	sts	0x0093, r26	; 0x800093 <PILOTE_SPI+0x13>
    1c36:	b0 93 94 00 	sts	0x0094, r27	; 0x800094 <PILOTE_SPI+0x14>
			
		}
	
	}
	
}
    1c3a:	30 c0       	rjmp	.+96     	; 0x1c9c <Acomoda_5X32_DATE+0x706>
		}
		else
		PILOTE_SPI.tmp_acmd=60;
	}
	
	if(PILOTE_SPI.tmp_acmd>47)
    1c3c:	90 91 a5 00 	lds	r25, 0x00A5	; 0x8000a5 <PILOTE_SPI+0x25>
    1c40:	a0 ce       	rjmp	.-704    	; 0x1982 <Acomoda_5X32_DATE+0x3ec>
    1c42:	80 33       	cpi	r24, 0x30	; 48
    1c44:	08 f4       	brcc	.+2      	; 0x1c48 <Acomoda_5X32_DATE+0x6b2>
    1c46:	f4 ce       	rjmp	.-536    	; 0x1a30 <Acomoda_5X32_DATE+0x49a>
    1c48:	9b ce       	rjmp	.-714    	; 0x1980 <Acomoda_5X32_DATE+0x3ea>
			{
				aux_rev_sec = PILOTE_SPI.checa_parpadea_12AM ? 0xFFFFE000 :  0X1FFF;
				
				if(aux_rev_sec==0xFFFFE000)
				{
					PILOTE_SPI.OUT_BARRIDO[2] &= aux_rev_sec;
    1c4a:	00 27       	eor	r16, r16
    1c4c:	10 7e       	andi	r17, 0xE0	; 224
    1c4e:	00 93 89 00 	sts	0x0089, r16	; 0x800089 <PILOTE_SPI+0x9>
    1c52:	10 93 8a 00 	sts	0x008A, r17	; 0x80008a <PILOTE_SPI+0xa>
    1c56:	20 93 8b 00 	sts	0x008B, r18	; 0x80008b <PILOTE_SPI+0xb>
    1c5a:	30 93 8c 00 	sts	0x008C, r19	; 0x80008c <PILOTE_SPI+0xc>
		}		
	}
	/******************************************************************************/
	/**   OUTBARRIDO[3]                                                ************/

	if(PILOTE_HORLOGE.year==0)
    1c5e:	88 23       	and	r24, r24
    1c60:	09 f4       	brne	.+2      	; 0x1c64 <Acomoda_5X32_DATE+0x6ce>
    1c62:	21 cf       	rjmp	.-446    	; 0x1aa6 <Acomoda_5X32_DATE+0x510>
    1c64:	e5 ce       	rjmp	.-566    	; 0x1a30 <Acomoda_5X32_DATE+0x49a>
				{
			//		if(PILOTE_SPI.temp_32_SH!=CLR_UP)
					PILOTE_SPI.temp_32_SH=CLR_UP;
					
					PILOTE_SPI.temp_32_SH= PILOTE_SPI.temp_32_SH>>(32-PILOTE_SPI.tmp_acmd);
					PILOTE_SPI.OUT_BARRIDO[2] |= PILOTE_SPI.temp_32_SH;
    1c66:	40 2b       	or	r20, r16
    1c68:	51 2b       	or	r21, r17
    1c6a:	62 2b       	or	r22, r18
    1c6c:	73 2b       	or	r23, r19
    1c6e:	40 93 89 00 	sts	0x0089, r20	; 0x800089 <PILOTE_SPI+0x9>
    1c72:	50 93 8a 00 	sts	0x008A, r21	; 0x80008a <PILOTE_SPI+0xa>
    1c76:	60 93 8b 00 	sts	0x008B, r22	; 0x80008b <PILOTE_SPI+0xb>
    1c7a:	70 93 8c 00 	sts	0x008C, r23	; 0x80008c <PILOTE_SPI+0xc>
		}		
	}
	/******************************************************************************/
	/**   OUTBARRIDO[3]                                                ************/

	if(PILOTE_HORLOGE.year==0)
    1c7e:	88 23       	and	r24, r24
    1c80:	09 f4       	brne	.+2      	; 0x1c84 <Acomoda_5X32_DATE+0x6ee>
    1c82:	ce ce       	rjmp	.-612    	; 0x1a20 <Acomoda_5X32_DATE+0x48a>
    1c84:	d5 ce       	rjmp	.-598    	; 0x1a30 <Acomoda_5X32_DATE+0x49a>
    1c86:	88 23       	and	r24, r24
    1c88:	09 f4       	brne	.+2      	; 0x1c8c <Acomoda_5X32_DATE+0x6f6>
    1c8a:	ce ce       	rjmp	.-612    	; 0x1a28 <Acomoda_5X32_DATE+0x492>
    1c8c:	d1 ce       	rjmp	.-606    	; 0x1a30 <Acomoda_5X32_DATE+0x49a>
	else
	{
		PILOTE_SPI.tmp_acmd=PILOTE_HORLOGE.year;
	}

	if(PILOTE_SPI.tmp_acmd>15)
    1c8e:	80 91 a5 00 	lds	r24, 0x00A5	; 0x8000a5 <PILOTE_SPI+0x25>
    1c92:	d0 ce       	rjmp	.-608    	; 0x1a34 <Acomoda_5X32_DATE+0x49e>
	
	/*****OUT_BARRIDO[2]*///////////
	
	PILOTE_SPI.tmp_acmd=PILOTE_HORLOGE.date;

	if(PILOTE_SPI.tmp_acmd<19)
    1c94:	83 31       	cpi	r24, 0x13	; 19
    1c96:	08 f0       	brcs	.+2      	; 0x1c9a <Acomoda_5X32_DATE+0x704>
    1c98:	53 ce       	rjmp	.-858    	; 0x1940 <Acomoda_5X32_DATE+0x3aa>
    1c9a:	3b ce       	rjmp	.-906    	; 0x1912 <Acomoda_5X32_DATE+0x37c>
			
		}
	
	}
	
}
    1c9c:	1f 91       	pop	r17
    1c9e:	0f 91       	pop	r16
    1ca0:	08 95       	ret

00001ca2 <Despliega>:


void Despliega()
{	
	if(PILOTE_SPI. recorre_barrido >0x10)// mayor que una quinta posicion binaria
    1ca2:	80 91 80 00 	lds	r24, 0x0080	; 0x800080 <PILOTE_SPI>
    1ca6:	81 31       	cpi	r24, 0x11	; 17
    1ca8:	18 f0       	brcs	.+6      	; 0x1cb0 <Despliega+0xe>
	{
		PILOTE_SPI.recorre_barrido=0x1;
    1caa:	81 e0       	ldi	r24, 0x01	; 1
    1cac:	80 93 80 00 	sts	0x0080, r24	; 0x800080 <PILOTE_SPI>
	}

    PORT_BARRIDO=0;	
    1cb0:	18 ba       	out	0x18, r1	; 24
	HC595Latch();
    1cb2:	0e 94 31 07 	call	0xe62	; 0xe62 <HC595Latch>
	DELAY_us(25);
    1cb6:	89 e1       	ldi	r24, 0x19	; 25
    1cb8:	90 e0       	ldi	r25, 0x00	; 0
    1cba:	0e 94 97 0e 	call	0x1d2e	; 0x1d2e <DELAY_us>
	PORT_BARRIDO=PILOTE_SPI.recorre_barrido;
    1cbe:	e0 e8       	ldi	r30, 0x80	; 128
    1cc0:	f0 e0       	ldi	r31, 0x00	; 0
    1cc2:	80 81       	ld	r24, Z
    1cc4:	88 bb       	out	0x18, r24	; 24
	PILOTE_SPI.recorre_barrido = PILOTE_SPI. recorre_barrido << 1;
    1cc6:	80 81       	ld	r24, Z
    1cc8:	88 0f       	add	r24, r24
    1cca:	80 83       	st	Z, r24
    1ccc:	08 95       	ret

00001cce <send_spi>:


void send_spi(void)
{
	
	PILOTE_SPI.next_outbarrido++;
    1cce:	80 91 a2 00 	lds	r24, 0x00A2	; 0x8000a2 <PILOTE_SPI+0x22>
    1cd2:	8f 5f       	subi	r24, 0xFF	; 255
	
	if(PILOTE_SPI.next_outbarrido>4)
    1cd4:	85 30       	cpi	r24, 0x05	; 5
    1cd6:	18 f4       	brcc	.+6      	; 0x1cde <send_spi+0x10>


void send_spi(void)
{
	
	PILOTE_SPI.next_outbarrido++;
    1cd8:	80 93 a2 00 	sts	0x00A2, r24	; 0x8000a2 <PILOTE_SPI+0x22>
    1cdc:	02 c0       	rjmp	.+4      	; 0x1ce2 <send_spi+0x14>
	
	if(PILOTE_SPI.next_outbarrido>4)
	PILOTE_SPI.next_outbarrido=0;
    1cde:	10 92 a2 00 	sts	0x00A2, r1	; 0x8000a2 <PILOTE_SPI+0x22>
    

	PILOTE_SPI.tmp_spi = PILOTE_SPI.OUT_BARRIDO[PILOTE_SPI.next_outbarrido];
    1ce2:	e0 e8       	ldi	r30, 0x80	; 128
    1ce4:	f0 e0       	ldi	r31, 0x00	; 0
    1ce6:	a2 a1       	ldd	r26, Z+34	; 0x22
    1ce8:	b0 e0       	ldi	r27, 0x00	; 0
    1cea:	aa 0f       	add	r26, r26
    1cec:	bb 1f       	adc	r27, r27
    1cee:	aa 0f       	add	r26, r26
    1cf0:	bb 1f       	adc	r27, r27
    1cf2:	a0 58       	subi	r26, 0x80	; 128
    1cf4:	bf 4f       	sbci	r27, 0xFF	; 255
    1cf6:	11 96       	adiw	r26, 0x01	; 1
    1cf8:	8d 91       	ld	r24, X+
    1cfa:	9d 91       	ld	r25, X+
    1cfc:	0d 90       	ld	r0, X+
    1cfe:	bc 91       	ld	r27, X
    1d00:	a0 2d       	mov	r26, r0
	PILOTE_SPI.tmp_spi2 = PILOTE_SPI.tmp_spi & 0b00000000000000000000000011111111;	
	PILOTE_SPI.spi_data[0] =PILOTE_SPI. tmp_spi2;
    1d02:	85 8b       	std	Z+21, r24	; 0x15


	PILOTE_SPI.tmp_spi=PILOTE_SPI. OUT_BARRIDO[PILOTE_SPI.next_outbarrido];
	PILOTE_SPI.tmp_spi2 = PILOTE_SPI.tmp_spi &0b00000000000000001111111100000000;	
	PILOTE_SPI.tmp_spi2= PILOTE_SPI.tmp_spi >> 8;		
	PILOTE_SPI.spi_data[1]=PILOTE_SPI.tmp_spi2;	
    1d04:	96 8b       	std	Z+22, r25	; 0x16
	
	
	PILOTE_SPI.tmp_spi= PILOTE_SPI.OUT_BARRIDO[PILOTE_SPI.next_outbarrido];	
	PILOTE_SPI.tmp_spi2=PILOTE_SPI.tmp_spi & 0b00000000111111110000000000000000;	
	PILOTE_SPI.tmp_spi2=PILOTE_SPI. tmp_spi >> 16;	
	PILOTE_SPI.spi_data[2]=PILOTE_SPI.tmp_spi2;
    1d06:	a7 8b       	std	Z+23, r26	; 0x17
	
	
	PILOTE_SPI.tmp_spi=PILOTE_SPI.OUT_BARRIDO[PILOTE_SPI.next_outbarrido];
	PILOTE_SPI.tmp_spi = PILOTE_SPI.tmp_spi & 0b11111111000000000000000000000000;
    1d08:	88 27       	eor	r24, r24
    1d0a:	99 27       	eor	r25, r25
    1d0c:	aa 27       	eor	r26, r26
    1d0e:	81 8f       	std	Z+25, r24	; 0x19
    1d10:	92 8f       	std	Z+26, r25	; 0x1a
    1d12:	a3 8f       	std	Z+27, r26	; 0x1b
    1d14:	b4 8f       	std	Z+28, r27	; 0x1c
	PILOTE_SPI.tmp_spi2= PILOTE_SPI.tmp_spi >> 24;	
    1d16:	8b 2f       	mov	r24, r27
    1d18:	99 27       	eor	r25, r25
    1d1a:	aa 27       	eor	r26, r26
    1d1c:	bb 27       	eor	r27, r27
    1d1e:	85 8f       	std	Z+29, r24	; 0x1d
    1d20:	96 8f       	std	Z+30, r25	; 0x1e
    1d22:	a7 8f       	std	Z+31, r26	; 0x1f
    1d24:	b0 a3       	std	Z+32, r27	; 0x20
	PILOTE_SPI.spi_data[3]=PILOTE_SPI.tmp_spi2;
    1d26:	80 8f       	std	Z+24, r24	; 0x18
	
	PILOTE_SPI.send_store= TRUE;
    1d28:	81 e0       	ldi	r24, 0x01	; 1
    1d2a:	81 a3       	std	Z+33, r24	; 0x21
    1d2c:	08 95       	ret

00001d2e <DELAY_us>:
         if 5000 is passed as the argument then it generates a delay of 5ms.		  

 ***************************************************************************************************/
void DELAY_us(uint16_t us_count) 
{
    while (us_count != 0) 
    1d2e:	00 97       	sbiw	r24, 0x00	; 0
    1d30:	19 f0       	breq	.+6      	; 0x1d38 <DELAY_us+0xa>
	#else
		//round up by default
		__ticks_dc = (uint32_t)(ceil(fabs(__tmp)));
	#endif

	__builtin_avr_delay_cycles(__ticks_dc);
    1d32:	00 00       	nop
    {
        _delay_us(1);
		us_count--;
    1d34:	01 97       	sbiw	r24, 0x01	; 1
         if 5000 is passed as the argument then it generates a delay of 5ms.		  

 ***************************************************************************************************/
void DELAY_us(uint16_t us_count) 
{
    while (us_count != 0) 
    1d36:	e9 f7       	brne	.-6      	; 0x1d32 <DELAY_us+0x4>
    1d38:	08 95       	ret

00001d3a <I2C_Init>:

 * description :This function is used to initialize the I2C module
------------------------------------------------------------------------------------*/
void I2C_Init()
{
    TWSR=0x00; //set presca1er bits to zero
    1d3a:	11 b8       	out	0x01, r1	; 1
    TWBR=32;//((16000000/100000)-16)/(2*1) ; //SCL frequency is 50K for 16Mhz
    1d3c:	80 e2       	ldi	r24, 0x20	; 32
    1d3e:	80 b9       	out	0x00, r24	; 0
    TWCR|=(1<<TWEN)| (1<<TWINT); //0x04; //enab1e TWI module
    1d40:	86 b7       	in	r24, 0x36	; 54
    1d42:	84 68       	ori	r24, 0x84	; 132
    1d44:	86 bf       	out	0x36, r24	; 54
    1d46:	08 95       	ret

00001d48 <I2C_Stop>:

 ***************************************************************************************************/

void I2C_Stop(void)
{
    TWCR = ((1<< TWINT) | (1<<TWEN) | (1<<TWSTO));
    1d48:	84 e9       	ldi	r24, 0x94	; 148
    1d4a:	86 bf       	out	0x36, r24	; 54
	while(TWCR & (1<<TWSTO));
    1d4c:	06 b6       	in	r0, 0x36	; 54
    1d4e:	04 fc       	sbrc	r0, 4
    1d50:	fd cf       	rjmp	.-6      	; 0x1d4c <I2C_Stop+0x4>

    DELAY_us(50) ; //wait for a short time
    1d52:	82 e3       	ldi	r24, 0x32	; 50
    1d54:	90 e0       	ldi	r25, 0x00	; 0
    1d56:	0e 94 97 0e 	call	0x1d2e	; 0x1d2e <DELAY_us>
    1d5a:	08 95       	ret

00001d5c <I2C_Write_RD>:
	return i2c_check_status(0x28);
}

void I2C_Write_RD(uint8_t v_i2cData_u8)
{
	TWDR = v_i2cData_u8 ;
    1d5c:	83 b9       	out	0x03, r24	; 3
	
	TWCR = ((1<< TWINT) | (1<<TWEN));
    1d5e:	84 e8       	ldi	r24, 0x84	; 132
    1d60:	86 bf       	out	0x36, r24	; 54
	
	while (!(TWCR & (1 <<TWINT)));
    1d62:	06 b6       	in	r0, 0x36	; 54
    1d64:	07 fe       	sbrs	r0, 7
    1d66:	fd cf       	rjmp	.-6      	; 0x1d62 <I2C_Write_RD+0x6>
	


	
}
    1d68:	08 95       	ret

00001d6a <I2C_Read>:
}
*/

uint8_t I2C_Read(uint8_t ack) // nack 0
{
	TWCR = ack ?
    1d6a:	81 11       	cpse	r24, r1
    1d6c:	02 c0       	rjmp	.+4      	; 0x1d72 <I2C_Read+0x8>
    1d6e:	84 e8       	ldi	r24, 0x84	; 132
    1d70:	01 c0       	rjmp	.+2      	; 0x1d74 <I2C_Read+0xa>
    1d72:	84 ec       	ldi	r24, 0xC4	; 196
    1d74:	86 bf       	out	0x36, r24	; 54
	((1 << TWINT) | (1 << TWEN) | (1 << TWEA))
	: ((1 << TWINT) | (1 << TWEN)) ;
	
	while (!(TWCR & (1<<TWINT)));
    1d76:	06 b6       	in	r0, 0x36	; 54
    1d78:	07 fe       	sbrs	r0, 7
    1d7a:	fd cf       	rjmp	.-6      	; 0x1d76 <I2C_Read+0xc>
	
	
	return TWDR;
    1d7c:	83 b1       	in	r24, 0x03	; 3
}
    1d7e:	08 95       	ret

00001d80 <i2c_check_status>:

char i2c_check_status(char status)
{
	if((TWSR & 0xf8) == status) 
    1d80:	21 b1       	in	r18, 0x01	; 1
    1d82:	28 7f       	andi	r18, 0xF8	; 248
    1d84:	30 e0       	ldi	r19, 0x00	; 0
    1d86:	48 2f       	mov	r20, r24
    1d88:	50 e0       	ldi	r21, 0x00	; 0
    1d8a:	81 e0       	ldi	r24, 0x01	; 1
    1d8c:	24 17       	cp	r18, r20
    1d8e:	35 07       	cpc	r19, r21
    1d90:	09 f0       	breq	.+2      	; 0x1d94 <i2c_check_status+0x14>
    1d92:	80 e0       	ldi	r24, 0x00	; 0
		} 
		else
		 {
		return 0;
	     }
}
    1d94:	08 95       	ret

00001d96 <I2C_Start>:
                      ____|         |____________

 ***************************************************************************************************/
uint8_t I2C_Start()
{
    TWCR = ((1<<TWINT) | (1<<TWSTA) | (1<<TWEN));
    1d96:	84 ea       	ldi	r24, 0xA4	; 164
    1d98:	86 bf       	out	0x36, r24	; 54
    while (!(TWCR & (1<<TWINT)));
    1d9a:	06 b6       	in	r0, 0x36	; 54
    1d9c:	07 fe       	sbrs	r0, 7
    1d9e:	fd cf       	rjmp	.-6      	; 0x1d9a <I2C_Start+0x4>
	return i2c_check_status(0x08);
    1da0:	88 e0       	ldi	r24, 0x08	; 8
    1da2:	0e 94 c0 0e 	call	0x1d80	; 0x1d80 <i2c_check_status>
}
    1da6:	08 95       	ret

00001da8 <I2C_Write>:


 ***************************************************************************************************/
uint8_t I2C_Write(uint16_t v_i2cData_u8)
{
    TWDR = v_i2cData_u8 ;
    1da8:	83 b9       	out	0x03, r24	; 3
    TWCR = ((1<< TWINT) | (1<<TWEN));
    1daa:	24 e8       	ldi	r18, 0x84	; 132
    1dac:	26 bf       	out	0x36, r18	; 54
    while (!(TWCR & (1 <<TWINT)));
    1dae:	06 b6       	in	r0, 0x36	; 54
    1db0:	07 fe       	sbrs	r0, 7
    1db2:	fd cf       	rjmp	.-6      	; 0x1dae <I2C_Write+0x6>
	if(v_i2cData_u8==ADDR_24C32)
    1db4:	80 3a       	cpi	r24, 0xA0	; 160
    1db6:	91 05       	cpc	r25, r1
    1db8:	21 f4       	brne	.+8      	; 0x1dc2 <I2C_Write+0x1a>
	
	return i2c_check_status(0x18);
    1dba:	88 e1       	ldi	r24, 0x18	; 24
    1dbc:	0e 94 c0 0e 	call	0x1d80	; 0x1d80 <i2c_check_status>
    1dc0:	08 95       	ret
	else
	return i2c_check_status(0x28);
    1dc2:	88 e2       	ldi	r24, 0x28	; 40
    1dc4:	0e 94 c0 0e 	call	0x1d80	; 0x1d80 <i2c_check_status>
}
    1dc8:	08 95       	ret

00001dca <Init_Btns>:


void Init_Btns(void)
{
	
	DDR_BOTONES = 0b00000000;//configura el puerto D como entrada para los botones
    1dca:	11 ba       	out	0x11, r1	; 17
	PORT_BOTONES=       0x00;
    1dcc:	12 ba       	out	0x12, r1	; 18
	
	DDR_BTN5 &=   0b11110111;
    1dce:	d3 98       	cbi	0x1a, 3	; 26
	PORT_BTN5&=   0b11110111;
    1dd0:	db 98       	cbi	0x1b, 3	; 27
	
	
	/****PORT D ASSIGNED TO BUTTONS*////////
	BOUTONS_PILOTES.boton_num[0]=PORT_IN_BTNS &Mask_BIT0;
    1dd2:	80 b3       	in	r24, 0x10	; 16
    1dd4:	81 70       	andi	r24, 0x01	; 1
    1dd6:	e3 eb       	ldi	r30, 0xB3	; 179
    1dd8:	f0 e0       	ldi	r31, 0x00	; 0
    1dda:	80 83       	st	Z, r24
	BOUTONS_PILOTES.boton_num[1]=PORT_IN_BTNS &Mask_BIT1;
    1ddc:	80 b3       	in	r24, 0x10	; 16
    1dde:	82 70       	andi	r24, 0x02	; 2
    1de0:	81 83       	std	Z+1, r24	; 0x01
	BOUTONS_PILOTES.boton_num[2]=PORT_IN_BTNS &Mask_BIT2;
    1de2:	80 b3       	in	r24, 0x10	; 16
    1de4:	84 70       	andi	r24, 0x04	; 4
    1de6:	82 83       	std	Z+2, r24	; 0x02
	BOUTONS_PILOTES.boton_num[3]=PORT_IN_BTNS &Mask_BIT3;
    1de8:	80 b3       	in	r24, 0x10	; 16
    1dea:	88 70       	andi	r24, 0x08	; 8
    1dec:	83 83       	std	Z+3, r24	; 0x03
	BOUTONS_PILOTES.boton_num[4]=PORT_IN_BTNS &Mask_BIT4;
    1dee:	80 b3       	in	r24, 0x10	; 16
    1df0:	80 71       	andi	r24, 0x10	; 16
    1df2:	84 83       	std	Z+4, r24	; 0x04
	/******************************************************////
	BOUTONS_PILOTES.boton_num[5]=PIN_BTN5     &Mask_BIT3;//****PD5 OC1A (PWM) y va al OE del 595 asi que le asignamos PA3 al boton 5
    1df4:	89 b3       	in	r24, 0x19	; 25
    1df6:	88 70       	andi	r24, 0x08	; 8
    1df8:	85 83       	std	Z+5, r24	; 0x05
	/********************************************************/////
	BOUTONS_PILOTES.boton_num[6]=PORT_IN_BTNS &Mask_BIT6;
    1dfa:	80 b3       	in	r24, 0x10	; 16
    1dfc:	80 74       	andi	r24, 0x40	; 64
    1dfe:	86 83       	std	Z+6, r24	; 0x06
	BOUTONS_PILOTES.boton_num[7]=PORT_IN_BTNS &Mask_BIT7;
    1e00:	80 b3       	in	r24, 0x10	; 16
    1e02:	80 78       	andi	r24, 0x80	; 128
    1e04:	87 83       	std	Z+7, r24	; 0x07
    1e06:	08 95       	ret

00001e08 <HC595Init>:
}
void HC595Init()
{
	/****Latch**********/////
	HC595_DDR |=  MASK595;
    1e08:	d1 9a       	sbi	0x1a, 1	; 26
	
	DDR_BARRIDO |= 0b00011111;
    1e0a:	87 b3       	in	r24, 0x17	; 23
    1e0c:	8f 61       	ori	r24, 0x1F	; 31
    1e0e:	87 bb       	out	0x17, r24	; 23
	PORT_BARRIDO = 0b00000001;
    1e10:	81 e0       	ldi	r24, 0x01	; 1
    1e12:	88 bb       	out	0x18, r24	; 24
    1e14:	08 95       	ret

00001e16 <inicio_timer>:
	//HC595_PORT|= (~(1<<HC595_OE_POS));

}
void inicio_timer(void)
{
	cli();
    1e16:	f8 94       	cli
	
	TIMSK = (1<<OCIE0);
    1e18:	82 e0       	ldi	r24, 0x02	; 2
    1e1a:	89 bf       	out	0x39, r24	; 57
	
	TCCR2 = (1 << CS20) |  (1<<CS21) ;// Timer 2 /64
    1e1c:	83 e0       	ldi	r24, 0x03	; 3
    1e1e:	85 bd       	out	0x25, r24	; 37
	TCNT2 =0;
    1e20:	14 bc       	out	0x24, r1	; 36
	
	
	OCR2 =0x19;//25decimal  // en 16mhz / 64 =.000004 / 250 = .001sec = 1ms   // a 25 100us
    1e22:	89 e1       	ldi	r24, 0x19	; 25
    1e24:	83 bd       	out	0x23, r24	; 35
	
	
	OCR0=10;
    1e26:	8a e0       	ldi	r24, 0x0A	; 10
    1e28:	8c bf       	out	0x3c, r24	; 60
	TCCR0 = (1 << CS02) | (1<< CS00);	
    1e2a:	85 e0       	ldi	r24, 0x05	; 5
    1e2c:	83 bf       	out	0x33, r24	; 51
	TCNT0=0;
    1e2e:	12 be       	out	0x32, r1	; 50
	
	sei();
    1e30:	78 94       	sei
	
/***** SET PWM ********************************////////	

    DDRD |=(1<<PD5);
    1e32:	8d 9a       	sbi	0x11, 5	; 17

	TCCR1A= (1<<COM1A1) | (1<<COM1A0) | (1<<WGM11) | (1<<WGM10) ;
    1e34:	83 ec       	ldi	r24, 0xC3	; 195
    1e36:	8f bd       	out	0x2f, r24	; 47
	TCCR1B= (1<<WGM12)  | (1<<CS10)                             ;
    1e38:	89 e0       	ldi	r24, 0x09	; 9
    1e3a:	8e bd       	out	0x2e, r24	; 46
    1e3c:	08 95       	ret

00001e3e <Init_SPI>:
void Init_SPI(void)
{
	
	
	// Set MOSI, SCK as Output
	DDRB|=  (1<<MOSI)|(1<<SCK);	
    1e3e:	87 b3       	in	r24, 0x17	; 23
    1e40:	80 6a       	ori	r24, 0xA0	; 160
    1e42:	87 bb       	out	0x17, r24	; 23
	SPCR=   (1<<SPE) | (1<<MSTR) | (1<<DORD) | (1<<SPR1) | ((1<<SPR0)); 
    1e44:	83 e7       	ldi	r24, 0x73	; 115
    1e46:	8d b9       	out	0x0d, r24	; 13
	SPSR=   ((1<<SPI2X));
    1e48:	81 e0       	ldi	r24, 0x01	; 1
    1e4a:	8e b9       	out	0x0e, r24	; 14
	sei();
    1e4c:	78 94       	sei
    1e4e:	08 95       	ret

00001e50 <Init_WT588D_Ports>:

void Init_WT588D_Ports(void)
{
	//          rst         busy
	  
	DDRA |= ((1<<PA0) | (0<<PA2));
    1e50:	d0 9a       	sbi	0x1a, 0	; 26
	//          clk       cs         data
	//          p03	    p02         p01	// del wt588
	DDRC |= (1<<PC6 | (1<<PC5) |(1<<PC4));
    1e52:	84 b3       	in	r24, 0x14	; 20
    1e54:	80 67       	ori	r24, 0x70	; 112
    1e56:	84 bb       	out	0x14, r24	; 20
    1e58:	08 95       	ret

00001e5a <init_io_ports>:
	
}

void init_io_ports(void)
{
	HC595Init();
    1e5a:	0e 94 04 0f 	call	0x1e08	; 0x1e08 <HC595Init>
	I2C_Init();	
    1e5e:	0e 94 9d 0e 	call	0x1d3a	; 0x1d3a <I2C_Init>
	Init_Btns();
    1e62:	0e 94 e5 0e 	call	0x1dca	; 0x1dca <Init_Btns>
	inicio_timer();    
    1e66:	0e 94 0b 0f 	call	0x1e16	; 0x1e16 <inicio_timer>
	Init_SPI();
    1e6a:	0e 94 1f 0f 	call	0x1e3e	; 0x1e3e <Init_SPI>
	Init_WT588D_Ports();
    1e6e:	0e 94 28 0f 	call	0x1e50	; 0x1e50 <Init_WT588D_Ports>
    1e72:	08 95       	ret

00001e74 <revisa_enviar_spi>:
}

void revisa_enviar_spi(void)
{
	if(PILOTE_SPI.barrer==FALSE)
    1e74:	80 91 a3 00 	lds	r24, 0x00A3	; 0x8000a3 <PILOTE_SPI+0x23>
    1e78:	81 11       	cpse	r24, r1
    1e7a:	1b c0       	rjmp	.+54     	; 0x1eb2 <revisa_enviar_spi+0x3e>
	{		
		
		send_spi();
    1e7c:	0e 94 67 0e 	call	0x1cce	; 0x1cce <send_spi>
		cli();
    1e80:	f8 94       	cli
	
		SPDR=PILOTE_SPI.spi_data[0];
    1e82:	80 91 95 00 	lds	r24, 0x0095	; 0x800095 <PILOTE_SPI+0x15>
    1e86:	8f b9       	out	0x0f, r24	; 15
		while(!(SPSR & (1<<SPIF)));
    1e88:	77 9b       	sbis	0x0e, 7	; 14
    1e8a:	fe cf       	rjmp	.-4      	; 0x1e88 <revisa_enviar_spi+0x14>
		SPDR=PILOTE_SPI.spi_data[1];
    1e8c:	80 91 96 00 	lds	r24, 0x0096	; 0x800096 <PILOTE_SPI+0x16>
    1e90:	8f b9       	out	0x0f, r24	; 15
		while(!(SPSR & (1<<SPIF)));
    1e92:	77 9b       	sbis	0x0e, 7	; 14
    1e94:	fe cf       	rjmp	.-4      	; 0x1e92 <revisa_enviar_spi+0x1e>
		SPDR=PILOTE_SPI.spi_data[2];
    1e96:	80 91 97 00 	lds	r24, 0x0097	; 0x800097 <PILOTE_SPI+0x17>
    1e9a:	8f b9       	out	0x0f, r24	; 15
		while(!(SPSR & (1<<SPIF)));
    1e9c:	77 9b       	sbis	0x0e, 7	; 14
    1e9e:	fe cf       	rjmp	.-4      	; 0x1e9c <revisa_enviar_spi+0x28>
		SPDR=PILOTE_SPI.spi_data[3];
    1ea0:	80 91 98 00 	lds	r24, 0x0098	; 0x800098 <PILOTE_SPI+0x18>
    1ea4:	8f b9       	out	0x0f, r24	; 15
		while(!(SPSR & (1<<SPIF)));
    1ea6:	77 9b       	sbis	0x0e, 7	; 14
    1ea8:	fe cf       	rjmp	.-4      	; 0x1ea6 <revisa_enviar_spi+0x32>
		PILOTE_SPI.barrer=TRUE;		
    1eaa:	81 e0       	ldi	r24, 0x01	; 1
    1eac:	80 93 a3 00 	sts	0x00A3, r24	; 0x8000a3 <PILOTE_SPI+0x23>
		
		sei();
    1eb0:	78 94       	sei
    1eb2:	08 95       	ret

00001eb4 <revisa_acomoda>:
	}
}


void revisa_acomoda(void)
{
    1eb4:	cf 93       	push	r28
    1eb6:	df 93       	push	r29


switch (MODE_DEPLOYE.selectionner_mode)
    1eb8:	e0 91 b0 00 	lds	r30, 0x00B0	; 0x8000b0 <MODE_DEPLOYE>
    1ebc:	8e 2f       	mov	r24, r30
    1ebe:	90 e0       	ldi	r25, 0x00	; 0
    1ec0:	8f 30       	cpi	r24, 0x0F	; 15
    1ec2:	91 05       	cpc	r25, r1
    1ec4:	08 f0       	brcs	.+2      	; 0x1ec8 <revisa_acomoda+0x14>
    1ec6:	ed c0       	rjmp	.+474    	; 0x20a2 <revisa_acomoda+0x1ee>
    1ec8:	fc 01       	movw	r30, r24
    1eca:	eb 5b       	subi	r30, 0xBB	; 187
    1ecc:	ff 4f       	sbci	r31, 0xFF	; 255
    1ece:	0c 94 f1 14 	jmp	0x29e2	; 0x29e2 <__tablejump2__>
	{
case NO_PRG:

	if(PILOTE_HORLOGE.past_sec!=PILOTE_HORLOGE.sec)
    1ed2:	e1 e6       	ldi	r30, 0x61	; 97
    1ed4:	f0 e0       	ldi	r31, 0x00	; 0
    1ed6:	91 85       	ldd	r25, Z+9	; 0x09
    1ed8:	80 81       	ld	r24, Z
    1eda:	98 17       	cp	r25, r24
    1edc:	39 f1       	breq	.+78     	; 0x1f2c <revisa_acomoda+0x78>
		{	

			switch (KIND_DISPLAY.show_date)
    1ede:	80 91 ab 00 	lds	r24, 0x00AB	; 0x8000ab <KIND_DISPLAY>
    1ee2:	81 30       	cpi	r24, 0x01	; 1
    1ee4:	69 f0       	breq	.+26     	; 0x1f00 <revisa_acomoda+0x4c>
    1ee6:	18 f0       	brcs	.+6      	; 0x1eee <revisa_acomoda+0x3a>
    1ee8:	82 30       	cpi	r24, 0x02	; 2
    1eea:	99 f0       	breq	.+38     	; 0x1f12 <revisa_acomoda+0x5e>
    1eec:	1f c0       	rjmp	.+62     	; 0x1f2c <revisa_acomoda+0x78>
			{
				
							
				case CLOCK:
			 	PILOTE_HORLOGE.lee_RTC=TRUE;
    1eee:	c1 e6       	ldi	r28, 0x61	; 97
    1ef0:	d0 e0       	ldi	r29, 0x00	; 0
    1ef2:	81 e0       	ldi	r24, 0x01	; 1
    1ef4:	89 8f       	std	Y+25, r24	; 0x19
				Acomoda_5x32();			
    1ef6:	0e 94 96 07 	call	0xf2c	; 0xf2c <Acomoda_5x32>
				PILOTE_HORLOGE.past_sec = PILOTE_HORLOGE.sec;	
    1efa:	88 81       	ld	r24, Y
    1efc:	89 87       	std	Y+9, r24	; 0x09
			//	on_audio(SOUND_RUPEE);
				break;
    1efe:	16 c0       	rjmp	.+44     	; 0x1f2c <revisa_acomoda+0x78>
				
				case CALENDAR:
		       PILOTE_HORLOGE.lee_RTC=TRUE;
    1f00:	c1 e6       	ldi	r28, 0x61	; 97
    1f02:	d0 e0       	ldi	r29, 0x00	; 0
    1f04:	81 e0       	ldi	r24, 0x01	; 1
    1f06:	89 8f       	std	Y+25, r24	; 0x19
			   Acomoda_5X32_DATE();
    1f08:	0e 94 cb 0a 	call	0x1596	; 0x1596 <Acomoda_5X32_DATE>
		       
		       PILOTE_HORLOGE.past_sec = PILOTE_HORLOGE.sec ;
    1f0c:	88 81       	ld	r24, Y
    1f0e:	89 87       	std	Y+9, r24	; 0x09
		       break;
    1f10:	0d c0       	rjmp	.+26     	; 0x1f2c <revisa_acomoda+0x78>
			   
			   case ALARM:
			   
			   PILOTE_HORLOGE.lee_RTC=FALSE;
    1f12:	c1 e6       	ldi	r28, 0x61	; 97
    1f14:	d0 e0       	ldi	r29, 0x00	; 0
    1f16:	19 8e       	std	Y+25, r1	; 0x19
			   
			   PILOTE_HORLOGE.sec=PILOTE_HORLOGE.alrm_sec;
    1f18:	8e 81       	ldd	r24, Y+6	; 0x06
    1f1a:	88 83       	st	Y, r24
			   PILOTE_HORLOGE.min= PILOTE_HORLOGE.alrm_min;
    1f1c:	8f 81       	ldd	r24, Y+7	; 0x07
    1f1e:	89 83       	std	Y+1, r24	; 0x01
			   PILOTE_HORLOGE.hour= PILOTE_HORLOGE.alrm_hr;
    1f20:	88 85       	ldd	r24, Y+8	; 0x08
    1f22:	8a 83       	std	Y+2, r24	; 0x02
	         //  PILOTE_HORLOGE.lee_RTC=FALSE;
	           Acomoda_5x32();	
    1f24:	0e 94 96 07 	call	0xf2c	; 0xf2c <Acomoda_5x32>
			  // LeeRTC();
	            PILOTE_HORLOGE.past_sec = PILOTE_HORLOGE.sec ;
    1f28:	88 81       	ld	r24, Y
    1f2a:	89 87       	std	Y+9, r24	; 0x09

	

case PRG_SEG:

	 Mode_de_DEPLOYE();
    1f2c:	0e 94 8b 03 	call	0x716	; 0x716 <Mode_de_DEPLOYE>
 
	if(PILOTE_HORLOGE.past_sec!=PILOTE_HORLOGE.sec)
    1f30:	e1 e6       	ldi	r30, 0x61	; 97
    1f32:	f0 e0       	ldi	r31, 0x00	; 0
    1f34:	91 85       	ldd	r25, Z+9	; 0x09
    1f36:	80 81       	ld	r24, Z
    1f38:	98 17       	cp	r25, r24
    1f3a:	09 f4       	brne	.+2      	; 0x1f3e <revisa_acomoda+0x8a>
    1f3c:	b2 c0       	rjmp	.+356    	; 0x20a2 <revisa_acomoda+0x1ee>
		{ 
	
	
		 Acomoda_5x32();
    1f3e:	0e 94 96 07 	call	0xf2c	; 0xf2c <Acomoda_5x32>
		 PILOTE_HORLOGE.past_sec=PILOTE_HORLOGE.sec;
    1f42:	e1 e6       	ldi	r30, 0x61	; 97
    1f44:	f0 e0       	ldi	r31, 0x00	; 0
    1f46:	80 81       	ld	r24, Z
    1f48:	81 87       	std	Z+9, r24	; 0x09
    1f4a:	ab c0       	rjmp	.+342    	; 0x20a2 <revisa_acomoda+0x1ee>
	break;
	
	
case PRG_MIN:

	Mode_de_DEPLOYE();
    1f4c:	0e 94 8b 03 	call	0x716	; 0x716 <Mode_de_DEPLOYE>

	if(PILOTE_HORLOGE.past_min!=PILOTE_HORLOGE.min)
    1f50:	e1 e6       	ldi	r30, 0x61	; 97
    1f52:	f0 e0       	ldi	r31, 0x00	; 0
    1f54:	92 85       	ldd	r25, Z+10	; 0x0a
    1f56:	81 81       	ldd	r24, Z+1	; 0x01
    1f58:	98 17       	cp	r25, r24
    1f5a:	09 f4       	brne	.+2      	; 0x1f5e <revisa_acomoda+0xaa>
    1f5c:	a2 c0       	rjmp	.+324    	; 0x20a2 <revisa_acomoda+0x1ee>
		{
			
			Acomoda_5x32();
    1f5e:	0e 94 96 07 	call	0xf2c	; 0xf2c <Acomoda_5x32>
			
			PILOTE_HORLOGE.past_min=PILOTE_HORLOGE.min;
    1f62:	e1 e6       	ldi	r30, 0x61	; 97
    1f64:	f0 e0       	ldi	r31, 0x00	; 0
    1f66:	81 81       	ldd	r24, Z+1	; 0x01
    1f68:	82 87       	std	Z+10, r24	; 0x0a
    1f6a:	9b c0       	rjmp	.+310    	; 0x20a2 <revisa_acomoda+0x1ee>

break;

case PRG_HR:

	Mode_de_DEPLOYE();
    1f6c:	0e 94 8b 03 	call	0x716	; 0x716 <Mode_de_DEPLOYE>
	if(PILOTE_HORLOGE.past_hour!=PILOTE_HORLOGE.hour)
    1f70:	e1 e6       	ldi	r30, 0x61	; 97
    1f72:	f0 e0       	ldi	r31, 0x00	; 0
    1f74:	93 85       	ldd	r25, Z+11	; 0x0b
    1f76:	82 81       	ldd	r24, Z+2	; 0x02
    1f78:	98 17       	cp	r25, r24
    1f7a:	09 f4       	brne	.+2      	; 0x1f7e <revisa_acomoda+0xca>
    1f7c:	92 c0       	rjmp	.+292    	; 0x20a2 <revisa_acomoda+0x1ee>
		{
			
			Acomoda_5x32();
    1f7e:	0e 94 96 07 	call	0xf2c	; 0xf2c <Acomoda_5x32>
			
			PILOTE_HORLOGE.past_hour=PILOTE_HORLOGE.hour;
    1f82:	e1 e6       	ldi	r30, 0x61	; 97
    1f84:	f0 e0       	ldi	r31, 0x00	; 0
    1f86:	82 81       	ldd	r24, Z+2	; 0x02
    1f88:	83 87       	std	Z+11, r24	; 0x0b
    1f8a:	8b c0       	rjmp	.+278    	; 0x20a2 <revisa_acomoda+0x1ee>

case PRG_MTH:



	Mode_de_DEPLOYE();
    1f8c:	0e 94 8b 03 	call	0x716	; 0x716 <Mode_de_DEPLOYE>

	if(PILOTE_HORLOGE.past_month!=PILOTE_HORLOGE.month)
    1f90:	e1 e6       	ldi	r30, 0x61	; 97
    1f92:	f0 e0       	ldi	r31, 0x00	; 0
    1f94:	94 85       	ldd	r25, Z+12	; 0x0c
    1f96:	84 81       	ldd	r24, Z+4	; 0x04
    1f98:	98 17       	cp	r25, r24
    1f9a:	09 f4       	brne	.+2      	; 0x1f9e <revisa_acomoda+0xea>
    1f9c:	82 c0       	rjmp	.+260    	; 0x20a2 <revisa_acomoda+0x1ee>
		{
			
			Acomoda_5X32_DATE();
    1f9e:	0e 94 cb 0a 	call	0x1596	; 0x1596 <Acomoda_5X32_DATE>
			
			PILOTE_HORLOGE.past_month=PILOTE_HORLOGE.month;
    1fa2:	e1 e6       	ldi	r30, 0x61	; 97
    1fa4:	f0 e0       	ldi	r31, 0x00	; 0
    1fa6:	84 81       	ldd	r24, Z+4	; 0x04
    1fa8:	84 87       	std	Z+12, r24	; 0x0c
    1faa:	7b c0       	rjmp	.+246    	; 0x20a2 <revisa_acomoda+0x1ee>
		}
break;

case PRG_DAY:

	Mode_de_DEPLOYE();
    1fac:	0e 94 8b 03 	call	0x716	; 0x716 <Mode_de_DEPLOYE>

	if(PILOTE_HORLOGE.past_date!=PILOTE_HORLOGE.date)
    1fb0:	e1 e6       	ldi	r30, 0x61	; 97
    1fb2:	f0 e0       	ldi	r31, 0x00	; 0
    1fb4:	95 85       	ldd	r25, Z+13	; 0x0d
    1fb6:	83 81       	ldd	r24, Z+3	; 0x03
    1fb8:	98 17       	cp	r25, r24
    1fba:	09 f4       	brne	.+2      	; 0x1fbe <revisa_acomoda+0x10a>
    1fbc:	72 c0       	rjmp	.+228    	; 0x20a2 <revisa_acomoda+0x1ee>
{
	
	Acomoda_5X32_DATE();
    1fbe:	0e 94 cb 0a 	call	0x1596	; 0x1596 <Acomoda_5X32_DATE>
	
	PILOTE_HORLOGE.past_date=PILOTE_HORLOGE.date;
    1fc2:	e1 e6       	ldi	r30, 0x61	; 97
    1fc4:	f0 e0       	ldi	r31, 0x00	; 0
    1fc6:	83 81       	ldd	r24, Z+3	; 0x03
    1fc8:	85 87       	std	Z+13, r24	; 0x0d
    1fca:	6b c0       	rjmp	.+214    	; 0x20a2 <revisa_acomoda+0x1ee>

break;

case PRG_YR:

	Mode_de_DEPLOYE();
    1fcc:	0e 94 8b 03 	call	0x716	; 0x716 <Mode_de_DEPLOYE>

	if(PILOTE_HORLOGE.past_year!=PILOTE_HORLOGE.year)
    1fd0:	e1 e6       	ldi	r30, 0x61	; 97
    1fd2:	f0 e0       	ldi	r31, 0x00	; 0
    1fd4:	96 85       	ldd	r25, Z+14	; 0x0e
    1fd6:	85 81       	ldd	r24, Z+5	; 0x05
    1fd8:	98 17       	cp	r25, r24
    1fda:	09 f4       	brne	.+2      	; 0x1fde <revisa_acomoda+0x12a>
    1fdc:	62 c0       	rjmp	.+196    	; 0x20a2 <revisa_acomoda+0x1ee>
		{			
			Acomoda_5X32_DATE();			
    1fde:	0e 94 cb 0a 	call	0x1596	; 0x1596 <Acomoda_5X32_DATE>
			PILOTE_HORLOGE.past_year=PILOTE_HORLOGE.year;
    1fe2:	e1 e6       	ldi	r30, 0x61	; 97
    1fe4:	f0 e0       	ldi	r31, 0x00	; 0
    1fe6:	85 81       	ldd	r24, Z+5	; 0x05
    1fe8:	86 87       	std	Z+14, r24	; 0x0e
    1fea:	5b c0       	rjmp	.+182    	; 0x20a2 <revisa_acomoda+0x1ee>
        }
break;


case PRG_ALRM_SEG:
   Mode_de_DEPLOYE();
    1fec:	0e 94 8b 03 	call	0x716	; 0x716 <Mode_de_DEPLOYE>
   
   if(PILOTE_HORLOGE.past_sec_alrm!=PILOTE_HORLOGE.sec)
    1ff0:	e1 e6       	ldi	r30, 0x61	; 97
    1ff2:	f0 e0       	ldi	r31, 0x00	; 0
    1ff4:	97 85       	ldd	r25, Z+15	; 0x0f
    1ff6:	80 81       	ld	r24, Z
    1ff8:	98 17       	cp	r25, r24
    1ffa:	09 f4       	brne	.+2      	; 0x1ffe <revisa_acomoda+0x14a>
    1ffc:	52 c0       	rjmp	.+164    	; 0x20a2 <revisa_acomoda+0x1ee>
   {
	   
	   Acomoda_5x32();
    1ffe:	0e 94 96 07 	call	0xf2c	; 0xf2c <Acomoda_5x32>
	   
	   PILOTE_HORLOGE.past_sec_alrm=PILOTE_HORLOGE.sec;
    2002:	e1 e6       	ldi	r30, 0x61	; 97
    2004:	f0 e0       	ldi	r31, 0x00	; 0
    2006:	80 81       	ld	r24, Z
    2008:	87 87       	std	Z+15, r24	; 0x0f
    200a:	4b c0       	rjmp	.+150    	; 0x20a2 <revisa_acomoda+0x1ee>
   }   
   
break;

case PRG_ALRM_MIN:
Mode_de_DEPLOYE();
    200c:	0e 94 8b 03 	call	0x716	; 0x716 <Mode_de_DEPLOYE>

if(PILOTE_HORLOGE.past_min_alrm!=PILOTE_HORLOGE.min)
    2010:	e1 e6       	ldi	r30, 0x61	; 97
    2012:	f0 e0       	ldi	r31, 0x00	; 0
    2014:	90 89       	ldd	r25, Z+16	; 0x10
    2016:	81 81       	ldd	r24, Z+1	; 0x01
    2018:	98 17       	cp	r25, r24
    201a:	09 f4       	brne	.+2      	; 0x201e <revisa_acomoda+0x16a>
    201c:	42 c0       	rjmp	.+132    	; 0x20a2 <revisa_acomoda+0x1ee>
{
	
	Acomoda_5x32();
    201e:	0e 94 96 07 	call	0xf2c	; 0xf2c <Acomoda_5x32>
	
	PILOTE_HORLOGE.past_min_alrm=PILOTE_HORLOGE.min;
    2022:	e1 e6       	ldi	r30, 0x61	; 97
    2024:	f0 e0       	ldi	r31, 0x00	; 0
    2026:	81 81       	ldd	r24, Z+1	; 0x01
    2028:	80 8b       	std	Z+16, r24	; 0x10
    202a:	3b c0       	rjmp	.+118    	; 0x20a2 <revisa_acomoda+0x1ee>
}
break;

case PRG_ALRM_HR:

Mode_de_DEPLOYE();
    202c:	0e 94 8b 03 	call	0x716	; 0x716 <Mode_de_DEPLOYE>
if(PILOTE_HORLOGE.past_hour_alrm!=PILOTE_HORLOGE.hour)
    2030:	e1 e6       	ldi	r30, 0x61	; 97
    2032:	f0 e0       	ldi	r31, 0x00	; 0
    2034:	91 89       	ldd	r25, Z+17	; 0x11
    2036:	82 81       	ldd	r24, Z+2	; 0x02
    2038:	98 17       	cp	r25, r24
    203a:	99 f1       	breq	.+102    	; 0x20a2 <revisa_acomoda+0x1ee>
{
	
	Acomoda_5x32();
    203c:	0e 94 96 07 	call	0xf2c	; 0xf2c <Acomoda_5x32>
	
	PILOTE_HORLOGE.past_hour_alrm=PILOTE_HORLOGE.hour;
    2040:	e1 e6       	ldi	r30, 0x61	; 97
    2042:	f0 e0       	ldi	r31, 0x00	; 0
    2044:	82 81       	ldd	r24, Z+2	; 0x02
    2046:	81 8b       	std	Z+17, r24	; 0x11
    2048:	2c c0       	rjmp	.+88     	; 0x20a2 <revisa_acomoda+0x1ee>
}
break;

case PRG_ALRM_ON_OFF:

Mode_de_DEPLOYE();
    204a:	0e 94 8b 03 	call	0x716	; 0x716 <Mode_de_DEPLOYE>
if(PILOTE_HORLOGE.past_sec_alrm!=PILOTE_HORLOGE.sec)
    204e:	e1 e6       	ldi	r30, 0x61	; 97
    2050:	f0 e0       	ldi	r31, 0x00	; 0
    2052:	97 85       	ldd	r25, Z+15	; 0x0f
    2054:	80 81       	ld	r24, Z
    2056:	98 17       	cp	r25, r24
    2058:	21 f1       	breq	.+72     	; 0x20a2 <revisa_acomoda+0x1ee>
{
	
	Acomoda_5x32();
    205a:	0e 94 96 07 	call	0xf2c	; 0xf2c <Acomoda_5x32>
	
	PILOTE_HORLOGE.past_sec_alrm=PILOTE_HORLOGE.sec;
    205e:	e1 e6       	ldi	r30, 0x61	; 97
    2060:	f0 e0       	ldi	r31, 0x00	; 0
    2062:	80 81       	ld	r24, Z
    2064:	87 87       	std	Z+15, r24	; 0x0f
    2066:	1d c0       	rjmp	.+58     	; 0x20a2 <revisa_acomoda+0x1ee>
break;


case PRG_SONIDOS:

Mode_de_DEPLOYE();
    2068:	0e 94 8b 03 	call	0x716	; 0x716 <Mode_de_DEPLOYE>

if(PILOTE_HORLOGE.past_sound!= PILOTE_HORLOGE.sound)
    206c:	e1 e6       	ldi	r30, 0x61	; 97
    206e:	f0 e0       	ldi	r31, 0x00	; 0
    2070:	96 89       	ldd	r25, Z+22	; 0x16
    2072:	82 89       	ldd	r24, Z+18	; 0x12
    2074:	98 17       	cp	r25, r24
    2076:	a9 f0       	breq	.+42     	; 0x20a2 <revisa_acomoda+0x1ee>
{
	
	Acomoda_5x32();
    2078:	0e 94 96 07 	call	0xf2c	; 0xf2c <Acomoda_5x32>
	
	PILOTE_HORLOGE.past_sound=PILOTE_HORLOGE.sound;
    207c:	e1 e6       	ldi	r30, 0x61	; 97
    207e:	f0 e0       	ldi	r31, 0x00	; 0
    2080:	82 89       	ldd	r24, Z+18	; 0x12
    2082:	86 8b       	std	Z+22, r24	; 0x16
    2084:	0e c0       	rjmp	.+28     	; 0x20a2 <revisa_acomoda+0x1ee>

break;


case PRG_TIPO_ALARMA:
Mode_de_DEPLOYE();
    2086:	0e 94 8b 03 	call	0x716	; 0x716 <Mode_de_DEPLOYE>

if(PILOTE_HORLOGE.past_knd_alarm!=PILOTE_HORLOGE.knd_alarm)
    208a:	e1 e6       	ldi	r30, 0x61	; 97
    208c:	f0 e0       	ldi	r31, 0x00	; 0
    208e:	97 89       	ldd	r25, Z+23	; 0x17
    2090:	83 89       	ldd	r24, Z+19	; 0x13
    2092:	98 17       	cp	r25, r24
    2094:	31 f0       	breq	.+12     	; 0x20a2 <revisa_acomoda+0x1ee>
{
	Acomoda_5x32();
    2096:	0e 94 96 07 	call	0xf2c	; 0xf2c <Acomoda_5x32>
	PILOTE_HORLOGE.past_knd_alarm=PILOTE_HORLOGE.knd_alarm;
    209a:	e1 e6       	ldi	r30, 0x61	; 97
    209c:	f0 e0       	ldi	r31, 0x00	; 0
    209e:	83 89       	ldd	r24, Z+19	; 0x13
    20a0:	87 8b       	std	Z+23, r24	; 0x17



	} //enf switch

} //end main
    20a2:	df 91       	pop	r29
    20a4:	cf 91       	pop	r28
    20a6:	08 95       	ret

000020a8 <revisa_despliega>:


void revisa_despliega(void)
{
	if(PILOTE_SPI.send_store==TRUE)
    20a8:	80 91 a1 00 	lds	r24, 0x00A1	; 0x8000a1 <PILOTE_SPI+0x21>
    20ac:	81 30       	cpi	r24, 0x01	; 1
    20ae:	21 f4       	brne	.+8      	; 0x20b8 <revisa_despliega+0x10>
	{		
		Despliega();
    20b0:	0e 94 51 0e 	call	0x1ca2	; 0x1ca2 <Despliega>
		PILOTE_SPI.send_store=FALSE;
    20b4:	10 92 a1 00 	sts	0x00A1, r1	; 0x8000a1 <PILOTE_SPI+0x21>
    20b8:	08 95       	ret

000020ba <revisa_juegos>:

void revisa_juegos(void)
 {
	 
	 
	 cli();
    20ba:	f8 94       	cli
	 PLAYS();
    20bc:	0e 94 e7 11 	call	0x23ce	; 0x23ce <PLAYS>
	 sei();
    20c0:	78 94       	sei
    20c2:	08 95       	ret

000020c4 <revisa_enviar_audio>:


void revisa_enviar_audio(void)
{
	
	if(Drive_WT58.send_audio==TRUE)
    20c4:	80 91 cc 00 	lds	r24, 0x00CC	; 0x8000cc <Drive_WT58+0x4>
    20c8:	81 30       	cpi	r24, 0x01	; 1
    20ca:	11 f4       	brne	.+4      	; 0x20d0 <revisa_enviar_audio+0xc>
	{
			 play_song_secuence();		
    20cc:	0e 94 74 14 	call	0x28e8	; 0x28e8 <play_song_secuence>
    20d0:	08 95       	ret

000020d2 <revisa_alarmaYsonidos>:

}

 void revisa_alarmaYsonidos(void)
 {
	if(MODE_DEPLOYE.selectionner_mode==NO_PRG)	
    20d2:	80 91 b0 00 	lds	r24, 0x00B0	; 0x8000b0 <MODE_DEPLOYE>
    20d6:	81 11       	cpse	r24, r1
    20d8:	64 c0       	rjmp	.+200    	; 0x21a2 <revisa_alarmaYsonidos+0xd0>
	{	
		if(KIND_DISPLAY.show_date==CLOCK)
    20da:	80 91 ab 00 	lds	r24, 0x00AB	; 0x8000ab <KIND_DISPLAY>
    20de:	81 11       	cpse	r24, r1
    20e0:	60 c0       	rjmp	.+192    	; 0x21a2 <revisa_alarmaYsonidos+0xd0>
		{
		 
		if(PILOTE_HORLOGE.alrm_hr == PILOTE_HORLOGE.hour)
    20e2:	e1 e6       	ldi	r30, 0x61	; 97
    20e4:	f0 e0       	ldi	r31, 0x00	; 0
    20e6:	90 85       	ldd	r25, Z+8	; 0x08
    20e8:	82 81       	ldd	r24, Z+2	; 0x02
    20ea:	98 13       	cpse	r25, r24
    20ec:	34 c0       	rjmp	.+104    	; 0x2156 <revisa_alarmaYsonidos+0x84>
		  {
			if(PILOTE_HORLOGE.alrm_min == PILOTE_HORLOGE.min)
    20ee:	97 81       	ldd	r25, Z+7	; 0x07
    20f0:	81 81       	ldd	r24, Z+1	; 0x01
    20f2:	98 13       	cpse	r25, r24
    20f4:	2a c0       	rjmp	.+84     	; 0x214a <revisa_alarmaYsonidos+0x78>
			  {               
		            if(Drive_WT58.alarma==FALSE)
    20f6:	80 91 d4 00 	lds	r24, 0x00D4	; 0x8000d4 <Drive_WT58+0xc>
    20fa:	81 11       	cpse	r24, r1
    20fc:	2c c0       	rjmp	.+88     	; 0x2156 <revisa_alarmaYsonidos+0x84>
					{		
					
						Drive_WT58.alarma=TRUE; 
    20fe:	81 e0       	ldi	r24, 0x01	; 1
    2100:	80 93 d4 00 	sts	0x00D4, r24	; 0x8000d4 <Drive_WT58+0xc>
						
						on_audio_alrm(PILOTE_HORLOGE.Alarm_PlayList); 
    2104:	80 91 76 00 	lds	r24, 0x0076	; 0x800076 <PILOTE_HORLOGE+0x15>
    2108:	0e 94 6d 14 	call	0x28da	; 0x28da <on_audio_alrm>
/*************************************************************************************/
/*************************************************************************************/
/*************************************************************************************/
/*************************************************************************************/
//****************************Prende el reloj si esta apagado***********************//						
			if(ESTADO.ON_OFF==FALSE)
    210c:	80 91 c7 00 	lds	r24, 0x00C7	; 0x8000c7 <ESTADO>
    2110:	81 11       	cpse	r24, r1
    2112:	21 c0       	rjmp	.+66     	; 0x2156 <revisa_alarmaYsonidos+0x84>
			{
						ESTADO.ON_OFF=TRUE;
    2114:	81 e0       	ldi	r24, 0x01	; 1
    2116:	80 93 c7 00 	sts	0x00C7, r24	; 0x8000c7 <ESTADO>
		DDRD |=(1<<PD5);
    211a:	8d 9a       	sbi	0x11, 5	; 17

		TCCR1A= (1<<COM1A1) | (1<<COM1A0) | (1<<WGM11) | (1<<WGM10);
    211c:	83 ec       	ldi	r24, 0xC3	; 195
    211e:	8f bd       	out	0x2f, r24	; 47
		TCCR1B= (1<<WGM12)  | (1<<CS10);
    2120:	89 e0       	ldi	r24, 0x09	; 9
    2122:	8e bd       	out	0x2e, r24	; 46
    BOUTONS_PILOTES.boton_num[0]=PORT_IN_BTNS ;
    2124:	80 b3       	in	r24, 0x10	; 16
    2126:	e3 eb       	ldi	r30, 0xB3	; 179
    2128:	f0 e0       	ldi	r31, 0x00	; 0
    212a:	80 83       	st	Z, r24
	BOUTONS_PILOTES.boton_num[1]=PORT_IN_BTNS ;
    212c:	80 b3       	in	r24, 0x10	; 16
    212e:	81 83       	std	Z+1, r24	; 0x01
	BOUTONS_PILOTES.boton_num[2]=PORT_IN_BTNS;
    2130:	80 b3       	in	r24, 0x10	; 16
    2132:	82 83       	std	Z+2, r24	; 0x02
	BOUTONS_PILOTES.boton_num[3]=PORT_IN_BTNS;
    2134:	80 b3       	in	r24, 0x10	; 16
    2136:	83 83       	std	Z+3, r24	; 0x03
	BOUTONS_PILOTES.boton_num[4]=PORT_IN_BTNS;
    2138:	80 b3       	in	r24, 0x10	; 16
    213a:	84 83       	std	Z+4, r24	; 0x04
	/******************************************************////
	BOUTONS_PILOTES.boton_num[5]=PIN_BTN5     ;//****PD5 OC1A (PWM) y va al OE del 595 asi que le asignamos PA3 al boton 5
    213c:	89 b3       	in	r24, 0x19	; 25
    213e:	85 83       	std	Z+5, r24	; 0x05
	/********************************************************/////
	BOUTONS_PILOTES.boton_num[6]=PORT_IN_BTNS ;
    2140:	80 b3       	in	r24, 0x10	; 16
    2142:	86 83       	std	Z+6, r24	; 0x06
	BOUTONS_PILOTES.boton_num[7]=PORT_IN_BTNS ;
    2144:	80 b3       	in	r24, 0x10	; 16
    2146:	87 83       	std	Z+7, r24	; 0x07
    2148:	06 c0       	rjmp	.+12     	; 0x2156 <revisa_alarmaYsonidos+0x84>
					
					
			}
			else
			{
				if(Drive_WT58.alarma==TRUE)
    214a:	80 91 d4 00 	lds	r24, 0x00D4	; 0x8000d4 <Drive_WT58+0xc>
    214e:	81 30       	cpi	r24, 0x01	; 1
    2150:	11 f4       	brne	.+4      	; 0x2156 <revisa_alarmaYsonidos+0x84>
				{
					Drive_WT58.alarma=FALSE;
    2152:	10 92 d4 00 	sts	0x00D4, r1	; 0x8000d4 <Drive_WT58+0xc>
				}
			}
	      
		}
		
		if(PILOTE_HORLOGE.min==0)
    2156:	80 91 62 00 	lds	r24, 0x0062	; 0x800062 <PILOTE_HORLOGE+0x1>
    215a:	81 11       	cpse	r24, r1
    215c:	1c c0       	rjmp	.+56     	; 0x2196 <revisa_alarmaYsonidos+0xc4>
		{
		  if(Drive_WT58.sonidos_general==FALSE)
    215e:	80 91 d5 00 	lds	r24, 0x00D5	; 0x8000d5 <Drive_WT58+0xd>
    2162:	81 11       	cpse	r24, r1
    2164:	1e c0       	rjmp	.+60     	; 0x21a2 <revisa_alarmaYsonidos+0xd0>
		  {
			  Drive_WT58.sonidos_general=TRUE;
    2166:	81 e0       	ldi	r24, 0x01	; 1
    2168:	80 93 d5 00 	sts	0x00D5, r24	; 0x8000d5 <Drive_WT58+0xd>
			  
			  switch (PILOTE_HORLOGE.hour)
    216c:	e1 e6       	ldi	r30, 0x61	; 97
    216e:	f0 e0       	ldi	r31, 0x00	; 0
			  
			  break;
			 */ 
			  default:			  
			  
			  if((PILOTE_HORLOGE.alrm_hr==PILOTE_HORLOGE.hour)&&(PILOTE_HORLOGE.alrm_min==PILOTE_HORLOGE.min))//	significa que se esta sonando una alarma
    2170:	92 81       	ldd	r25, Z+2	; 0x02
    2172:	80 85       	ldd	r24, Z+8	; 0x08
    2174:	98 13       	cpse	r25, r24
    2176:	09 c0       	rjmp	.+18     	; 0x218a <revisa_alarmaYsonidos+0xb8>
    2178:	80 91 68 00 	lds	r24, 0x0068	; 0x800068 <PILOTE_HORLOGE+0x7>
    217c:	81 11       	cpse	r24, r1
    217e:	05 c0       	rjmp	.+10     	; 0x218a <revisa_alarmaYsonidos+0xb8>
				on_audio_alrm(PILOTE_HORLOGE.Alarm_PlayList);
    2180:	80 91 76 00 	lds	r24, 0x0076	; 0x800076 <PILOTE_HORLOGE+0x15>
    2184:	0e 94 6d 14 	call	0x28da	; 0x28da <on_audio_alrm>
    2188:	08 95       	ret
				else
				{				
				
				 if((PORT_IN_BUSY & BUSY_WT588)==FALSE)
    218a:	ca 99       	sbic	0x19, 2	; 25
    218c:	0a c0       	rjmp	.+20     	; 0x21a2 <revisa_alarmaYsonidos+0xd0>
				 {
				     
					 on_audio(SOUND_SECRET);	
    218e:	87 e0       	ldi	r24, 0x07	; 7
    2190:	0e 94 66 14 	call	0x28cc	; 0x28cc <on_audio>
    2194:	08 95       	ret
		  
		}
		
		 else
		 {
			 if(Drive_WT58.sonidos_general==TRUE)
    2196:	80 91 d5 00 	lds	r24, 0x00D5	; 0x8000d5 <Drive_WT58+0xd>
    219a:	81 30       	cpi	r24, 0x01	; 1
    219c:	11 f4       	brne	.+4      	; 0x21a2 <revisa_alarmaYsonidos+0xd0>
			 {
				 Drive_WT58.sonidos_general=FALSE;
    219e:	10 92 d5 00 	sts	0x00D5, r1	; 0x8000d5 <Drive_WT58+0xd>
    21a2:	08 95       	ret

000021a4 <main>:
 }
 
int main(void)
{	
	
	init_io_ports();
    21a4:	0e 94 2d 0f 	call	0x1e5a	; 0x1e5a <init_io_ports>
	HC595Latch();
    21a8:	0e 94 31 07 	call	0xe62	; 0xe62 <HC595Latch>
//  DS1307_setdate(0x00, 0x15, 0X8);
   PILOTE_SPI.recorre_barrido=1;
    21ac:	e0 e8       	ldi	r30, 0x80	; 128
    21ae:	f0 e0       	ldi	r31, 0x00	; 0
    21b0:	81 e0       	ldi	r24, 0x01	; 1
    21b2:	80 83       	st	Z, r24
   
  PILOTE_SPI.  barrer=TRUE;
    21b4:	83 a3       	std	Z+35, r24	; 0x23
  PILOTE_SPI. send_store=FALSE;
    21b6:	11 a2       	std	Z+33, r1	; 0x21
  PILOTE_SPI. enviar_nuevo=TRUE;
    21b8:	84 a3       	std	Z+36, r24	; 0x24
  PILOTE_SPI. next_outbarrido=4;
    21ba:	94 e0       	ldi	r25, 0x04	; 4
    21bc:	92 a3       	std	Z+34, r25	; 0x22
  
  MODE_DEPLOYE.selectionner_mode=0;
    21be:	10 92 b0 00 	sts	0x00B0, r1	; 0x8000b0 <MODE_DEPLOYE>
  PILOTE_HORLOGE.time_toogle=TRUE;
    21c2:	80 93 7e 00 	sts	0x007E, r24	; 0x80007e <PILOTE_HORLOGE+0x1d>
  ESTADO.ON_OFF=TRUE;
    21c6:	80 93 c7 00 	sts	0x00C7, r24	; 0x8000c7 <ESTADO>
      
   BOUTONS_PILOTES.briller_change=EEReadByte(SAVE_BRG);   
    21ca:	80 e0       	ldi	r24, 0x00	; 0
    21cc:	90 e0       	ldi	r25, 0x00	; 0
    21ce:	0e 94 cb 00 	call	0x196	; 0x196 <EEReadByte>
    21d2:	90 e0       	ldi	r25, 0x00	; 0
    21d4:	c3 eb       	ldi	r28, 0xB3	; 179
    21d6:	d0 e0       	ldi	r29, 0x00	; 0
    21d8:	9d 87       	std	Y+13, r25	; 0x0d
    21da:	8c 87       	std	Y+12, r24	; 0x0c
     DELAY_us(850);
    21dc:	82 e5       	ldi	r24, 0x52	; 82
    21de:	93 e0       	ldi	r25, 0x03	; 3
    21e0:	0e 94 97 0e 	call	0x1d2e	; 0x1d2e <DELAY_us>
   
   switch (BOUTONS_PILOTES.briller_change)
    21e4:	8c 85       	ldd	r24, Y+12	; 0x0c
    21e6:	9d 85       	ldd	r25, Y+13	; 0x0d
    21e8:	82 30       	cpi	r24, 0x02	; 2
    21ea:	91 05       	cpc	r25, r1
    21ec:	19 f1       	breq	.+70     	; 0x2234 <main+0x90>
    21ee:	28 f4       	brcc	.+10     	; 0x21fa <main+0x56>
    21f0:	00 97       	sbiw	r24, 0x00	; 0
    21f2:	49 f0       	breq	.+18     	; 0x2206 <main+0x62>
    21f4:	01 97       	sbiw	r24, 0x01	; 1
    21f6:	b9 f0       	breq	.+46     	; 0x2226 <main+0x82>
    21f8:	32 c0       	rjmp	.+100    	; 0x225e <main+0xba>
    21fa:	83 30       	cpi	r24, 0x03	; 3
    21fc:	91 05       	cpc	r25, r1
    21fe:	09 f1       	breq	.+66     	; 0x2242 <main+0x9e>
    2200:	04 97       	sbiw	r24, 0x04	; 4
    2202:	31 f1       	breq	.+76     	; 0x2250 <main+0xac>
    2204:	2c c0       	rjmp	.+88     	; 0x225e <main+0xba>
   {
	   
	   case 0:
	   BOUTONS_PILOTES.briller_change=BRILLO1;
    2206:	8c e3       	ldi	r24, 0x3C	; 60
    2208:	90 e0       	ldi	r25, 0x00	; 0
    220a:	90 93 c0 00 	sts	0x00C0, r25	; 0x8000c0 <BOUTONS_PILOTES+0xd>
    220e:	80 93 bf 00 	sts	0x00BF, r24	; 0x8000bf <BOUTONS_PILOTES+0xc>
	   EEWriteByte(SAVE_BRG,1);
    2212:	61 e0       	ldi	r22, 0x01	; 1
    2214:	80 e0       	ldi	r24, 0x00	; 0
    2216:	90 e0       	ldi	r25, 0x00	; 0
    2218:	0e 94 ad 00 	call	0x15a	; 0x15a <EEWriteByte>
	   DELAY_us(850);
    221c:	82 e5       	ldi	r24, 0x52	; 82
    221e:	93 e0       	ldi	r25, 0x03	; 3
    2220:	0e 94 97 0e 	call	0x1d2e	; 0x1d2e <DELAY_us>
	   break;
    2224:	2b c0       	rjmp	.+86     	; 0x227c <main+0xd8>
	   case 1:
	   BOUTONS_PILOTES.briller_change=BRILLO1;
    2226:	8c e3       	ldi	r24, 0x3C	; 60
    2228:	90 e0       	ldi	r25, 0x00	; 0
    222a:	90 93 c0 00 	sts	0x00C0, r25	; 0x8000c0 <BOUTONS_PILOTES+0xd>
    222e:	80 93 bf 00 	sts	0x00BF, r24	; 0x8000bf <BOUTONS_PILOTES+0xc>
	   break;	   
    2232:	24 c0       	rjmp	.+72     	; 0x227c <main+0xd8>
	   case 2:
	   BOUTONS_PILOTES.briller_change=BRILLO2;
    2234:	85 e5       	ldi	r24, 0x55	; 85
    2236:	91 e0       	ldi	r25, 0x01	; 1
    2238:	90 93 c0 00 	sts	0x00C0, r25	; 0x8000c0 <BOUTONS_PILOTES+0xd>
    223c:	80 93 bf 00 	sts	0x00BF, r24	; 0x8000bf <BOUTONS_PILOTES+0xc>
	   break;
    2240:	1d c0       	rjmp	.+58     	; 0x227c <main+0xd8>
	   case 3:
	   BOUTONS_PILOTES.briller_change=BRILLO3;
    2242:	8a ea       	ldi	r24, 0xAA	; 170
    2244:	92 e0       	ldi	r25, 0x02	; 2
    2246:	90 93 c0 00 	sts	0x00C0, r25	; 0x8000c0 <BOUTONS_PILOTES+0xd>
    224a:	80 93 bf 00 	sts	0x00BF, r24	; 0x8000bf <BOUTONS_PILOTES+0xc>
	   break;
    224e:	16 c0       	rjmp	.+44     	; 0x227c <main+0xd8>
	   case 4:
	   BOUTONS_PILOTES.briller_change=BRILLO4;
    2250:	8f ef       	ldi	r24, 0xFF	; 255
    2252:	93 e0       	ldi	r25, 0x03	; 3
    2254:	90 93 c0 00 	sts	0x00C0, r25	; 0x8000c0 <BOUTONS_PILOTES+0xd>
    2258:	80 93 bf 00 	sts	0x00BF, r24	; 0x8000bf <BOUTONS_PILOTES+0xc>
	   break;
    225c:	0f c0       	rjmp	.+30     	; 0x227c <main+0xd8>
	   
	   default:
	     BOUTONS_PILOTES.briller_change=BRILLO1;
    225e:	8c e3       	ldi	r24, 0x3C	; 60
    2260:	90 e0       	ldi	r25, 0x00	; 0
    2262:	90 93 c0 00 	sts	0x00C0, r25	; 0x8000c0 <BOUTONS_PILOTES+0xd>
    2266:	80 93 bf 00 	sts	0x00BF, r24	; 0x8000bf <BOUTONS_PILOTES+0xc>
	     EEWriteByte(SAVE_BRG,1);	   
    226a:	61 e0       	ldi	r22, 0x01	; 1
    226c:	80 e0       	ldi	r24, 0x00	; 0
    226e:	90 e0       	ldi	r25, 0x00	; 0
    2270:	0e 94 ad 00 	call	0x15a	; 0x15a <EEWriteByte>
		 DELAY_us(850);  
    2274:	82 e5       	ldi	r24, 0x52	; 82
    2276:	93 e0       	ldi	r25, 0x03	; 3
    2278:	0e 94 97 0e 	call	0x1d2e	; 0x1d2e <DELAY_us>
	     break;
	   
   }
   
   
   if (BOUTONS_PILOTES.briller_change==BRILLO4)
    227c:	80 91 bf 00 	lds	r24, 0x00BF	; 0x8000bf <BOUTONS_PILOTES+0xc>
    2280:	90 91 c0 00 	lds	r25, 0x00C0	; 0x8000c0 <BOUTONS_PILOTES+0xd>
    2284:	8f 3f       	cpi	r24, 0xFF	; 255
    2286:	93 40       	sbci	r25, 0x03	; 3
    2288:	39 f4       	brne	.+14     	; 0x2298 <main+0xf4>
  BOUTONS_PILOTES.boton_briller=BRILLO1;
    228a:	8c e3       	ldi	r24, 0x3C	; 60
    228c:	90 e0       	ldi	r25, 0x00	; 0
    228e:	90 93 be 00 	sts	0x00BE, r25	; 0x8000be <BOUTONS_PILOTES+0xb>
    2292:	80 93 bd 00 	sts	0x00BD, r24	; 0x8000bd <BOUTONS_PILOTES+0xa>
    2296:	06 c0       	rjmp	.+12     	; 0x22a4 <main+0x100>
  else
  BOUTONS_PILOTES.boton_briller=BRILLO4;
    2298:	8f ef       	ldi	r24, 0xFF	; 255
    229a:	93 e0       	ldi	r25, 0x03	; 3
    229c:	90 93 be 00 	sts	0x00BE, r25	; 0x8000be <BOUTONS_PILOTES+0xb>
    22a0:	80 93 bd 00 	sts	0x00BD, r24	; 0x8000bd <BOUTONS_PILOTES+0xa>
  
  
  
  PILOTE_HORLOGE.alrm_sec= EEReadByte(SAVE_ALRM_ON_OFF);
    22a4:	81 e0       	ldi	r24, 0x01	; 1
    22a6:	90 e0       	ldi	r25, 0x00	; 0
    22a8:	0e 94 cb 00 	call	0x196	; 0x196 <EEReadByte>
    22ac:	80 93 67 00 	sts	0x0067, r24	; 0x800067 <PILOTE_HORLOGE+0x6>
  if(PILOTE_HORLOGE.alrm_sec==0)
    22b0:	81 11       	cpse	r24, r1
    22b2:	04 c0       	rjmp	.+8      	; 0x22bc <main+0x118>
  On_Off_Options.alarm=TRUE;
    22b4:	81 e0       	ldi	r24, 0x01	; 1
    22b6:	80 93 b1 00 	sts	0x00B1, r24	; 0x8000b1 <On_Off_Options>
    22ba:	02 c0       	rjmp	.+4      	; 0x22c0 <main+0x11c>
  else
  On_Off_Options.alarm=FALSE;
    22bc:	10 92 b1 00 	sts	0x00B1, r1	; 0x8000b1 <On_Off_Options>
  
  
  DELAY_us(3000);
    22c0:	88 eb       	ldi	r24, 0xB8	; 184
    22c2:	9b e0       	ldi	r25, 0x0B	; 11
    22c4:	0e 94 97 0e 	call	0x1d2e	; 0x1d2e <DELAY_us>
  PILOTE_HORLOGE.alrm_min=  EEReadByte(SAVE_ALRM_MIN);
    22c8:	82 e0       	ldi	r24, 0x02	; 2
    22ca:	90 e0       	ldi	r25, 0x00	; 0
    22cc:	0e 94 cb 00 	call	0x196	; 0x196 <EEReadByte>
    22d0:	c1 e6       	ldi	r28, 0x61	; 97
    22d2:	d0 e0       	ldi	r29, 0x00	; 0
    22d4:	8f 83       	std	Y+7, r24	; 0x07
  DELAY_us(3000);
    22d6:	88 eb       	ldi	r24, 0xB8	; 184
    22d8:	9b e0       	ldi	r25, 0x0B	; 11
    22da:	0e 94 97 0e 	call	0x1d2e	; 0x1d2e <DELAY_us>
  PILOTE_HORLOGE.alrm_hr= EEReadByte(SAVE_ALRM_HR);
    22de:	83 e0       	ldi	r24, 0x03	; 3
    22e0:	90 e0       	ldi	r25, 0x00	; 0
    22e2:	0e 94 cb 00 	call	0x196	; 0x196 <EEReadByte>
    22e6:	88 87       	std	Y+8, r24	; 0x08
  
   KIND_DISPLAY.show_date=CLOCK;
    22e8:	10 92 ab 00 	sts	0x00AB, r1	; 0x8000ab <KIND_DISPLAY>
   PILOTE_HORLOGE.lee_RTC=TRUE;
    22ec:	11 e0       	ldi	r17, 0x01	; 1
    22ee:	19 8f       	std	Y+25, r17	; 0x19
   LeeRTC();
    22f0:	0e 94 58 07 	call	0xeb0	; 0xeb0 <LeeRTC>
    // Drive_ornament.how_loops=5;
	 
	 Drive_WT58.rola=0;
    22f4:	e8 ec       	ldi	r30, 0xC8	; 200
    22f6:	f0 e0       	ldi	r31, 0x00	; 0
    22f8:	10 82       	st	Z, r1
	//sound_test();
	
	Drive_WT58.send_audio=FALSE; 
    22fa:	14 82       	std	Z+4, r1	; 0x04
	 Drive_WT58.contador_ms=0;
    22fc:	16 82       	std	Z+6, r1	; 0x06
	 Drive_WT58.protocol_part=0;
    22fe:	12 86       	std	Z+10, r1	; 0x0a
	
	 Drive_WT58.suma_ms=TRUE;
    2300:	17 83       	std	Z+7, r17	; 0x07
	
	PILOTE_HORLOGE.sound = EEReadByte(SAVE_SOUND_STATE);
    2302:	85 e0       	ldi	r24, 0x05	; 5
    2304:	90 e0       	ldi	r25, 0x00	; 0
    2306:	0e 94 cb 00 	call	0x196	; 0x196 <EEReadByte>
    230a:	8a 8b       	std	Y+18, r24	; 0x12
	 DELAY_us(800);
    230c:	80 e2       	ldi	r24, 0x20	; 32
    230e:	93 e0       	ldi	r25, 0x03	; 3
    2310:	0e 94 97 0e 	call	0x1d2e	; 0x1d2e <DELAY_us>
	PILOTE_HORLOGE.knd_alarm = EEReadByte(SAVE_KIND_ALARM);
    2314:	84 e0       	ldi	r24, 0x04	; 4
    2316:	90 e0       	ldi	r25, 0x00	; 0
    2318:	0e 94 cb 00 	call	0x196	; 0x196 <EEReadByte>
    231c:	8b 8b       	std	Y+19, r24	; 0x13
	 DELAY_us(800);
    231e:	80 e2       	ldi	r24, 0x20	; 32
    2320:	93 e0       	ldi	r25, 0x03	; 3
    2322:	0e 94 97 0e 	call	0x1d2e	; 0x1d2e <DELAY_us>
//	PILOTE_HORLOGE.volumen =  EEReadByte(SAVE_VOLUMEN);
//	 DELAY_us(800);
	 
	 if(PILOTE_HORLOGE.sound==0)
    2326:	8a 89       	ldd	r24, Y+18	; 0x12
    2328:	81 11       	cpse	r24, r1
    232a:	04 c0       	rjmp	.+8      	; 0x2334 <main+0x190>
		On_Off_Options.sounds=TRUE;
    232c:	81 e0       	ldi	r24, 0x01	; 1
    232e:	80 93 b2 00 	sts	0x00B2, r24	; 0x8000b2 <On_Off_Options+0x1>
    2332:	02 c0       	rjmp	.+4      	; 0x2338 <main+0x194>
		else
		On_Off_Options.sounds=FALSE;
    2334:	10 92 b2 00 	sts	0x00B2, r1	; 0x8000b2 <On_Off_Options+0x1>
	 
	 Drive_WT58.sonidos_general=FALSE;
    2338:	10 92 d5 00 	sts	0x00D5, r1	; 0x8000d5 <Drive_WT58+0xd>
	 
	 	switch (PILOTE_HORLOGE.knd_alarm)
    233c:	80 91 74 00 	lds	r24, 0x0074	; 0x800074 <PILOTE_HORLOGE+0x13>
    2340:	81 30       	cpi	r24, 0x01	; 1
    2342:	39 f0       	breq	.+14     	; 0x2352 <main+0x1ae>
    2344:	18 f0       	brcs	.+6      	; 0x234c <main+0x1a8>
    2346:	82 30       	cpi	r24, 0x02	; 2
    2348:	41 f0       	breq	.+16     	; 0x235a <main+0x1b6>
    234a:	0a c0       	rjmp	.+20     	; 0x2360 <main+0x1bc>
	 	{
		 	case 0:
		 	PILOTE_HORLOGE.Alarm_PlayList=SOUND_ALARMA;
    234c:	10 92 76 00 	sts	0x0076, r1	; 0x800076 <PILOTE_HORLOGE+0x15>
		 	break;
    2350:	07 c0       	rjmp	.+14     	; 0x2360 <main+0x1bc>
		 	case 1:
		 	PILOTE_HORLOGE.Alarm_PlayList=SOUND_ALARMA2;
    2352:	81 e0       	ldi	r24, 0x01	; 1
    2354:	80 93 76 00 	sts	0x0076, r24	; 0x800076 <PILOTE_HORLOGE+0x15>
		 	break;
    2358:	03 c0       	rjmp	.+6      	; 0x2360 <main+0x1bc>
		 	case 2:
		 	PILOTE_HORLOGE.Alarm_PlayList=SOUND_ALARMA3;
    235a:	82 e0       	ldi	r24, 0x02	; 2
    235c:	80 93 76 00 	sts	0x0076, r24	; 0x800076 <PILOTE_HORLOGE+0x15>
		 	break;
	 	}


	 
	 PILOTE_HORLOGE.month= DS1307_get(MONTH);
    2360:	85 e0       	ldi	r24, 0x05	; 5
    2362:	0e 94 fe 13 	call	0x27fc	; 0x27fc <DS1307_get>
    2366:	c1 e6       	ldi	r28, 0x61	; 97
    2368:	d0 e0       	ldi	r29, 0x00	; 0
    236a:	8c 83       	std	Y+4, r24	; 0x04
	 PILOTE_HORLOGE.month= BCDaDecimal(PILOTE_HORLOGE.month);
    236c:	0e 94 4d 07 	call	0xe9a	; 0xe9a <BCDaDecimal>
    2370:	8c 83       	std	Y+4, r24	; 0x04
	 PILOTE_HORLOGE.date = DS1307_get(DATE);//dia numero
    2372:	84 e0       	ldi	r24, 0x04	; 4
    2374:	0e 94 fe 13 	call	0x27fc	; 0x27fc <DS1307_get>
    2378:	8b 83       	std	Y+3, r24	; 0x03
	 PILOTE_HORLOGE.date = BCDaDecimal(PILOTE_HORLOGE.date);
    237a:	0e 94 4d 07 	call	0xe9a	; 0xe9a <BCDaDecimal>
    237e:	8b 83       	std	Y+3, r24	; 0x03
	 PILOTE_HORLOGE.year = DS1307_get(YEAR);
    2380:	86 e0       	ldi	r24, 0x06	; 6
    2382:	0e 94 fe 13 	call	0x27fc	; 0x27fc <DS1307_get>
    2386:	8d 83       	std	Y+5, r24	; 0x05
	 PILOTE_HORLOGE.year = BCDaDecimal(PILOTE_HORLOGE.year);
    2388:	0e 94 4d 07 	call	0xe9a	; 0xe9a <BCDaDecimal>
    238c:	8d 83       	std	Y+5, r24	; 0x05
	 
	 BOUTONS_PILOTES.boton_top_hd=FALSE;
    238e:	10 92 bb 00 	sts	0x00BB, r1	; 0x8000bb <BOUTONS_PILOTES+0x8>
	 TIMSK|= 0b10000000;
    2392:	89 b7       	in	r24, 0x39	; 57
    2394:	80 68       	ori	r24, 0x80	; 128
    2396:	89 bf       	out	0x39, r24	; 57
    while (1) 
			{	
				Modulo_Brillo();									
    2398:	0e 94 fe 06 	call	0xdfc	; 0xdfc <Modulo_Brillo>
				LeeRTC();							
    239c:	0e 94 58 07 	call	0xeb0	; 0xeb0 <LeeRTC>
				
				cli();
    23a0:	f8 94       	cli
				revisa_acomoda();
    23a2:	0e 94 5a 0f 	call	0x1eb4	; 0x1eb4 <revisa_acomoda>
				sei();								
    23a6:	78 94       	sei
				
				 revisa_juegos(); 
    23a8:	0e 94 5d 10 	call	0x20ba	; 0x20ba <revisa_juegos>
				
				revisa_despliega();		
    23ac:	0e 94 54 10 	call	0x20a8	; 0x20a8 <revisa_despliega>
				//cli();
				revisa_enviar_spi();			    
    23b0:	0e 94 3a 0f 	call	0x1e74	; 0x1e74 <revisa_enviar_spi>
		        //sei();			
				
					
				Lee_Botones();	
    23b4:	0e 94 ec 00 	call	0x1d8	; 0x1d8 <Lee_Botones>
		//esto evita que al salir del modo ALARMA la hora actual y las variables de desplegado no sean iguales a los de de ALARMA que se estaba leyendo y suene la alarma//**		
				if(PILOTE_HORLOGE.cortar_sonido==TRUE)
    23b8:	8e 8d       	ldd	r24, Y+30	; 0x1e
    23ba:	81 30       	cpi	r24, 0x01	; 1
    23bc:	19 f4       	brne	.+6      	; 0x23c4 <main+0x220>
				{
					PILOTE_HORLOGE.cortar_sonido=FALSE;
    23be:	1e 8e       	std	Y+30, r1	; 0x1e
					LeeRTC();
    23c0:	0e 94 58 07 	call	0xeb0	; 0xeb0 <LeeRTC>
				}
		//*********************************************************************************************************************************************************************		
				
				revisa_enviar_audio();
    23c4:	0e 94 62 10 	call	0x20c4	; 0x20c4 <revisa_enviar_audio>
				revisa_alarmaYsonidos();
    23c8:	0e 94 69 10 	call	0x20d2	; 0x20d2 <revisa_alarmaYsonidos>
				
				
				
				
        
			}//end while
    23cc:	e5 cf       	rjmp	.-54     	; 0x2398 <main+0x1f4>

000023ce <PLAYS>:
*/



///******mis mamadas********
switch(Drive_ornament.select_game)
    23ce:	80 91 df 00 	lds	r24, 0x00DF	; 0x8000df <Drive_ornament+0x9>
    23d2:	88 23       	and	r24, r24
    23d4:	21 f0       	breq	.+8      	; 0x23de <PLAYS+0x10>
    23d6:	81 30       	cpi	r24, 0x01	; 1
    23d8:	09 f4       	brne	.+2      	; 0x23dc <PLAYS+0xe>
    23da:	09 c1       	rjmp	.+530    	; 0x25ee <PLAYS+0x220>
    23dc:	08 95       	ret
{
	
	case 0:	
	 
	 if (Drive_ornament.i>Drive_ornament.how_loops)
    23de:	e6 ed       	ldi	r30, 0xD6	; 214
    23e0:	f0 e0       	ldi	r31, 0x00	; 0
    23e2:	90 85       	ldd	r25, Z+8	; 0x08
    23e4:	82 85       	ldd	r24, Z+10	; 0x0a
    23e6:	89 17       	cp	r24, r25
    23e8:	28 f4       	brcc	.+10     	; 0x23f4 <PLAYS+0x26>
		{		
		Drive_ornament.select_game++;
    23ea:	81 e0       	ldi	r24, 0x01	; 1
    23ec:	81 87       	std	Z+9, r24	; 0x09
		Drive_ornament.i=0;
    23ee:	10 86       	std	Z+8, r1	; 0x08
		Drive_ornament.how_loops=30;
    23f0:	8e e1       	ldi	r24, 0x1E	; 30
    23f2:	82 87       	std	Z+10, r24	; 0x0a
		}
		
	if(Drive_ornament.past_exec!=Drive_ornament.execute_mov)
    23f4:	a6 ed       	ldi	r26, 0xD6	; 214
    23f6:	b0 e0       	ldi	r27, 0x00	; 0
    23f8:	15 96       	adiw	r26, 0x05	; 5
    23fa:	ec 91       	ld	r30, X
    23fc:	15 97       	sbiw	r26, 0x05	; 5
    23fe:	16 96       	adiw	r26, 0x06	; 6
    2400:	8c 91       	ld	r24, X
    2402:	8e 17       	cp	r24, r30
    2404:	09 f4       	brne	.+2      	; 0x2408 <PLAYS+0x3a>
    2406:	f9 c1       	rjmp	.+1010   	; 0x27fa <PLAYS+0x42c>
	{		
		switch (Drive_ornament.execute_mov)
    2408:	8e 2f       	mov	r24, r30
    240a:	90 e0       	ldi	r25, 0x00	; 0
    240c:	80 31       	cpi	r24, 0x10	; 16
    240e:	91 05       	cpc	r25, r1
    2410:	08 f0       	brcs	.+2      	; 0x2414 <PLAYS+0x46>
    2412:	f3 c1       	rjmp	.+998    	; 0x27fa <PLAYS+0x42c>
    2414:	fc 01       	movw	r30, r24
    2416:	ec 5a       	subi	r30, 0xAC	; 172
    2418:	ff 4f       	sbci	r31, 0xFF	; 255
    241a:	0c 94 f1 14 	jmp	0x29e2	; 0x29e2 <__tablejump2__>
		{
			
			case 0:
				PILOTE_SPI.OUT_BARRIDO[4]&=0xFFFF0000;
				PILOTE_SPI.OUT_BARRIDO[4]|= 0x80;
    241e:	e0 e8       	ldi	r30, 0x80	; 128
    2420:	f0 e0       	ldi	r31, 0x00	; 0
    2422:	81 89       	ldd	r24, Z+17	; 0x11
    2424:	92 89       	ldd	r25, Z+18	; 0x12
    2426:	a3 89       	ldd	r26, Z+19	; 0x13
    2428:	b4 89       	ldd	r27, Z+20	; 0x14
    242a:	88 27       	eor	r24, r24
    242c:	99 27       	eor	r25, r25
    242e:	80 68       	ori	r24, 0x80	; 128
    2430:	81 8b       	std	Z+17, r24	; 0x11
    2432:	92 8b       	std	Z+18, r25	; 0x12
    2434:	a3 8b       	std	Z+19, r26	; 0x13
    2436:	b4 8b       	std	Z+20, r27	; 0x14
				
			break;
    2438:	08 95       	ret
			
			case 1:
			PILOTE_SPI.OUT_BARRIDO[4]&=0xFFFF0000;
			PILOTE_SPI.OUT_BARRIDO[4]|= 0x4;
    243a:	e0 e8       	ldi	r30, 0x80	; 128
    243c:	f0 e0       	ldi	r31, 0x00	; 0
    243e:	81 89       	ldd	r24, Z+17	; 0x11
    2440:	92 89       	ldd	r25, Z+18	; 0x12
    2442:	a3 89       	ldd	r26, Z+19	; 0x13
    2444:	b4 89       	ldd	r27, Z+20	; 0x14
    2446:	88 27       	eor	r24, r24
    2448:	99 27       	eor	r25, r25
    244a:	84 60       	ori	r24, 0x04	; 4
    244c:	81 8b       	std	Z+17, r24	; 0x11
    244e:	92 8b       	std	Z+18, r25	; 0x12
    2450:	a3 8b       	std	Z+19, r26	; 0x13
    2452:	b4 8b       	std	Z+20, r27	; 0x14
			break;
    2454:	08 95       	ret
			
			case 2:
			PILOTE_SPI.OUT_BARRIDO[4]&=0xFFFF0000;
			PILOTE_SPI.OUT_BARRIDO[4]|= 0x20;
    2456:	e0 e8       	ldi	r30, 0x80	; 128
    2458:	f0 e0       	ldi	r31, 0x00	; 0
    245a:	81 89       	ldd	r24, Z+17	; 0x11
    245c:	92 89       	ldd	r25, Z+18	; 0x12
    245e:	a3 89       	ldd	r26, Z+19	; 0x13
    2460:	b4 89       	ldd	r27, Z+20	; 0x14
    2462:	88 27       	eor	r24, r24
    2464:	99 27       	eor	r25, r25
    2466:	80 62       	ori	r24, 0x20	; 32
    2468:	81 8b       	std	Z+17, r24	; 0x11
    246a:	92 8b       	std	Z+18, r25	; 0x12
    246c:	a3 8b       	std	Z+19, r26	; 0x13
    246e:	b4 8b       	std	Z+20, r27	; 0x14
			
			break;
    2470:	08 95       	ret
			
			case 3:
			
			PILOTE_SPI.OUT_BARRIDO[4]&=0xFFFF0000;
			PILOTE_SPI.OUT_BARRIDO[4]|= 0x1;
    2472:	e0 e8       	ldi	r30, 0x80	; 128
    2474:	f0 e0       	ldi	r31, 0x00	; 0
    2476:	81 89       	ldd	r24, Z+17	; 0x11
    2478:	92 89       	ldd	r25, Z+18	; 0x12
    247a:	a3 89       	ldd	r26, Z+19	; 0x13
    247c:	b4 89       	ldd	r27, Z+20	; 0x14
    247e:	88 27       	eor	r24, r24
    2480:	99 27       	eor	r25, r25
    2482:	81 60       	ori	r24, 0x01	; 1
    2484:	81 8b       	std	Z+17, r24	; 0x11
    2486:	92 8b       	std	Z+18, r25	; 0x12
    2488:	a3 8b       	std	Z+19, r26	; 0x13
    248a:	b4 8b       	std	Z+20, r27	; 0x14
			
			
			break;
    248c:	08 95       	ret
			
			case 4: 
			
			PILOTE_SPI.OUT_BARRIDO[4]&= 0xFFFF0000;
			PILOTE_SPI.OUT_BARRIDO[4]|= 0x8000;	
    248e:	e0 e8       	ldi	r30, 0x80	; 128
    2490:	f0 e0       	ldi	r31, 0x00	; 0
    2492:	81 89       	ldd	r24, Z+17	; 0x11
    2494:	92 89       	ldd	r25, Z+18	; 0x12
    2496:	a3 89       	ldd	r26, Z+19	; 0x13
    2498:	b4 89       	ldd	r27, Z+20	; 0x14
    249a:	88 27       	eor	r24, r24
    249c:	99 27       	eor	r25, r25
    249e:	90 68       	ori	r25, 0x80	; 128
    24a0:	81 8b       	std	Z+17, r24	; 0x11
    24a2:	92 8b       	std	Z+18, r25	; 0x12
    24a4:	a3 8b       	std	Z+19, r26	; 0x13
    24a6:	b4 8b       	std	Z+20, r27	; 0x14
			
			break;
    24a8:	08 95       	ret
			
			case 5:
			PILOTE_SPI.OUT_BARRIDO[4]&=0xFFFF0000;
			PILOTE_SPI.OUT_BARRIDO[4]|= 0x400;
    24aa:	e0 e8       	ldi	r30, 0x80	; 128
    24ac:	f0 e0       	ldi	r31, 0x00	; 0
    24ae:	81 89       	ldd	r24, Z+17	; 0x11
    24b0:	92 89       	ldd	r25, Z+18	; 0x12
    24b2:	a3 89       	ldd	r26, Z+19	; 0x13
    24b4:	b4 89       	ldd	r27, Z+20	; 0x14
    24b6:	88 27       	eor	r24, r24
    24b8:	99 27       	eor	r25, r25
    24ba:	94 60       	ori	r25, 0x04	; 4
    24bc:	81 8b       	std	Z+17, r24	; 0x11
    24be:	92 8b       	std	Z+18, r25	; 0x12
    24c0:	a3 8b       	std	Z+19, r26	; 0x13
    24c2:	b4 8b       	std	Z+20, r27	; 0x14
			
			break;
    24c4:	08 95       	ret
			
			case 6:
			PILOTE_SPI.OUT_BARRIDO[4]&=0xFFFF0000;
			PILOTE_SPI.OUT_BARRIDO[4]|= 0x2000;			
    24c6:	e0 e8       	ldi	r30, 0x80	; 128
    24c8:	f0 e0       	ldi	r31, 0x00	; 0
    24ca:	81 89       	ldd	r24, Z+17	; 0x11
    24cc:	92 89       	ldd	r25, Z+18	; 0x12
    24ce:	a3 89       	ldd	r26, Z+19	; 0x13
    24d0:	b4 89       	ldd	r27, Z+20	; 0x14
    24d2:	88 27       	eor	r24, r24
    24d4:	99 27       	eor	r25, r25
    24d6:	90 62       	ori	r25, 0x20	; 32
    24d8:	81 8b       	std	Z+17, r24	; 0x11
    24da:	92 8b       	std	Z+18, r25	; 0x12
    24dc:	a3 8b       	std	Z+19, r26	; 0x13
    24de:	b4 8b       	std	Z+20, r27	; 0x14
			break;
    24e0:	08 95       	ret
			
			case 7:
			PILOTE_SPI.OUT_BARRIDO[4]&=0xFFFF0000;
			PILOTE_SPI.OUT_BARRIDO[4]|= 0x100;
    24e2:	e0 e8       	ldi	r30, 0x80	; 128
    24e4:	f0 e0       	ldi	r31, 0x00	; 0
    24e6:	81 89       	ldd	r24, Z+17	; 0x11
    24e8:	92 89       	ldd	r25, Z+18	; 0x12
    24ea:	a3 89       	ldd	r26, Z+19	; 0x13
    24ec:	b4 89       	ldd	r27, Z+20	; 0x14
    24ee:	88 27       	eor	r24, r24
    24f0:	99 27       	eor	r25, r25
    24f2:	91 60       	ori	r25, 0x01	; 1
    24f4:	81 8b       	std	Z+17, r24	; 0x11
    24f6:	92 8b       	std	Z+18, r25	; 0x12
    24f8:	a3 8b       	std	Z+19, r26	; 0x13
    24fa:	b4 8b       	std	Z+20, r27	; 0x14
			break;
    24fc:	08 95       	ret
			
			case 8:
			PILOTE_SPI.OUT_BARRIDO[4]&=0xFFFF0000;
			PILOTE_SPI.OUT_BARRIDO[4]|= 0x8;
    24fe:	e0 e8       	ldi	r30, 0x80	; 128
    2500:	f0 e0       	ldi	r31, 0x00	; 0
    2502:	81 89       	ldd	r24, Z+17	; 0x11
    2504:	92 89       	ldd	r25, Z+18	; 0x12
    2506:	a3 89       	ldd	r26, Z+19	; 0x13
    2508:	b4 89       	ldd	r27, Z+20	; 0x14
    250a:	88 27       	eor	r24, r24
    250c:	99 27       	eor	r25, r25
    250e:	88 60       	ori	r24, 0x08	; 8
    2510:	81 8b       	std	Z+17, r24	; 0x11
    2512:	92 8b       	std	Z+18, r25	; 0x12
    2514:	a3 8b       	std	Z+19, r26	; 0x13
    2516:	b4 8b       	std	Z+20, r27	; 0x14
			break;
    2518:	08 95       	ret
			
			case 9:
			PILOTE_SPI.OUT_BARRIDO[4]&=0xFFFF0000;
			PILOTE_SPI.OUT_BARRIDO[4]|= 0x40;
    251a:	e0 e8       	ldi	r30, 0x80	; 128
    251c:	f0 e0       	ldi	r31, 0x00	; 0
    251e:	81 89       	ldd	r24, Z+17	; 0x11
    2520:	92 89       	ldd	r25, Z+18	; 0x12
    2522:	a3 89       	ldd	r26, Z+19	; 0x13
    2524:	b4 89       	ldd	r27, Z+20	; 0x14
    2526:	88 27       	eor	r24, r24
    2528:	99 27       	eor	r25, r25
    252a:	80 64       	ori	r24, 0x40	; 64
    252c:	81 8b       	std	Z+17, r24	; 0x11
    252e:	92 8b       	std	Z+18, r25	; 0x12
    2530:	a3 8b       	std	Z+19, r26	; 0x13
    2532:	b4 8b       	std	Z+20, r27	; 0x14
			break;
    2534:	08 95       	ret
			
			case 10:
			PILOTE_SPI.OUT_BARRIDO[4]&=0xFFFF0000;
			PILOTE_SPI.OUT_BARRIDO[4]|= 0x2;
    2536:	e0 e8       	ldi	r30, 0x80	; 128
    2538:	f0 e0       	ldi	r31, 0x00	; 0
    253a:	81 89       	ldd	r24, Z+17	; 0x11
    253c:	92 89       	ldd	r25, Z+18	; 0x12
    253e:	a3 89       	ldd	r26, Z+19	; 0x13
    2540:	b4 89       	ldd	r27, Z+20	; 0x14
    2542:	88 27       	eor	r24, r24
    2544:	99 27       	eor	r25, r25
    2546:	82 60       	ori	r24, 0x02	; 2
    2548:	81 8b       	std	Z+17, r24	; 0x11
    254a:	92 8b       	std	Z+18, r25	; 0x12
    254c:	a3 8b       	std	Z+19, r26	; 0x13
    254e:	b4 8b       	std	Z+20, r27	; 0x14
			break;
    2550:	08 95       	ret
			
			case 11:
			PILOTE_SPI.OUT_BARRIDO[4]&=0xFFFF0000;
			PILOTE_SPI.OUT_BARRIDO[4]|= 0x10;
    2552:	e0 e8       	ldi	r30, 0x80	; 128
    2554:	f0 e0       	ldi	r31, 0x00	; 0
    2556:	81 89       	ldd	r24, Z+17	; 0x11
    2558:	92 89       	ldd	r25, Z+18	; 0x12
    255a:	a3 89       	ldd	r26, Z+19	; 0x13
    255c:	b4 89       	ldd	r27, Z+20	; 0x14
    255e:	88 27       	eor	r24, r24
    2560:	99 27       	eor	r25, r25
    2562:	80 61       	ori	r24, 0x10	; 16
    2564:	81 8b       	std	Z+17, r24	; 0x11
    2566:	92 8b       	std	Z+18, r25	; 0x12
    2568:	a3 8b       	std	Z+19, r26	; 0x13
    256a:	b4 8b       	std	Z+20, r27	; 0x14
			break;
    256c:	08 95       	ret
			
			case 12:
			PILOTE_SPI.OUT_BARRIDO[4]&=0xFFFF0000;
			PILOTE_SPI.OUT_BARRIDO[4]|= 0x800;
    256e:	e0 e8       	ldi	r30, 0x80	; 128
    2570:	f0 e0       	ldi	r31, 0x00	; 0
    2572:	81 89       	ldd	r24, Z+17	; 0x11
    2574:	92 89       	ldd	r25, Z+18	; 0x12
    2576:	a3 89       	ldd	r26, Z+19	; 0x13
    2578:	b4 89       	ldd	r27, Z+20	; 0x14
    257a:	88 27       	eor	r24, r24
    257c:	99 27       	eor	r25, r25
    257e:	98 60       	ori	r25, 0x08	; 8
    2580:	81 8b       	std	Z+17, r24	; 0x11
    2582:	92 8b       	std	Z+18, r25	; 0x12
    2584:	a3 8b       	std	Z+19, r26	; 0x13
    2586:	b4 8b       	std	Z+20, r27	; 0x14
			break;
    2588:	08 95       	ret
			
			case 13:
			PILOTE_SPI.OUT_BARRIDO[4]&=0xFFFF0000;
			PILOTE_SPI.OUT_BARRIDO[4]|= 0x4000;
    258a:	e0 e8       	ldi	r30, 0x80	; 128
    258c:	f0 e0       	ldi	r31, 0x00	; 0
    258e:	81 89       	ldd	r24, Z+17	; 0x11
    2590:	92 89       	ldd	r25, Z+18	; 0x12
    2592:	a3 89       	ldd	r26, Z+19	; 0x13
    2594:	b4 89       	ldd	r27, Z+20	; 0x14
    2596:	88 27       	eor	r24, r24
    2598:	99 27       	eor	r25, r25
    259a:	90 64       	ori	r25, 0x40	; 64
    259c:	81 8b       	std	Z+17, r24	; 0x11
    259e:	92 8b       	std	Z+18, r25	; 0x12
    25a0:	a3 8b       	std	Z+19, r26	; 0x13
    25a2:	b4 8b       	std	Z+20, r27	; 0x14
			break;
    25a4:	08 95       	ret
			
			case 14:
			PILOTE_SPI.OUT_BARRIDO[4]&=0xFFFF0000;
			PILOTE_SPI.OUT_BARRIDO[4]|= 0x200;
    25a6:	e0 e8       	ldi	r30, 0x80	; 128
    25a8:	f0 e0       	ldi	r31, 0x00	; 0
    25aa:	81 89       	ldd	r24, Z+17	; 0x11
    25ac:	92 89       	ldd	r25, Z+18	; 0x12
    25ae:	a3 89       	ldd	r26, Z+19	; 0x13
    25b0:	b4 89       	ldd	r27, Z+20	; 0x14
    25b2:	88 27       	eor	r24, r24
    25b4:	99 27       	eor	r25, r25
    25b6:	92 60       	ori	r25, 0x02	; 2
    25b8:	81 8b       	std	Z+17, r24	; 0x11
    25ba:	92 8b       	std	Z+18, r25	; 0x12
    25bc:	a3 8b       	std	Z+19, r26	; 0x13
    25be:	b4 8b       	std	Z+20, r27	; 0x14
			break;
    25c0:	08 95       	ret
			
			case 15:
			PILOTE_SPI.OUT_BARRIDO[4]&=0xFFFF0000;
			PILOTE_SPI.OUT_BARRIDO[4]|= 0x1000;
    25c2:	e0 e8       	ldi	r30, 0x80	; 128
    25c4:	f0 e0       	ldi	r31, 0x00	; 0
    25c6:	81 89       	ldd	r24, Z+17	; 0x11
    25c8:	92 89       	ldd	r25, Z+18	; 0x12
    25ca:	a3 89       	ldd	r26, Z+19	; 0x13
    25cc:	b4 89       	ldd	r27, Z+20	; 0x14
    25ce:	88 27       	eor	r24, r24
    25d0:	99 27       	eor	r25, r25
    25d2:	90 61       	ori	r25, 0x10	; 16
    25d4:	81 8b       	std	Z+17, r24	; 0x11
    25d6:	92 8b       	std	Z+18, r25	; 0x12
    25d8:	a3 8b       	std	Z+19, r26	; 0x13
    25da:	b4 8b       	std	Z+20, r27	; 0x14
			Drive_ornament.execute_mov=255;
    25dc:	e6 ed       	ldi	r30, 0xD6	; 214
    25de:	f0 e0       	ldi	r31, 0x00	; 0
    25e0:	8f ef       	ldi	r24, 0xFF	; 255
    25e2:	85 83       	std	Z+5, r24	; 0x05
			
			Drive_ornament.past_exec=Drive_ornament.execute_mov;
    25e4:	86 83       	std	Z+6, r24	; 0x06
			Drive_ornament.i++;
    25e6:	80 85       	ldd	r24, Z+8	; 0x08
    25e8:	8f 5f       	subi	r24, 0xFF	; 255
    25ea:	80 87       	std	Z+8, r24	; 0x08
			break;
    25ec:	08 95       	ret
			
	  break;
			
			case 1:
		
			if (Drive_ornament.i>Drive_ornament.how_loops)
    25ee:	e6 ed       	ldi	r30, 0xD6	; 214
    25f0:	f0 e0       	ldi	r31, 0x00	; 0
    25f2:	90 85       	ldd	r25, Z+8	; 0x08
    25f4:	82 85       	ldd	r24, Z+10	; 0x0a
    25f6:	89 17       	cp	r24, r25
    25f8:	20 f4       	brcc	.+8      	; 0x2602 <PLAYS+0x234>
			{
			//Drive_ornament.select_game++;
			Drive_ornament.i=0;
    25fa:	10 86       	std	Z+8, r1	; 0x08
			
			Drive_ornament.select_game=0;
    25fc:	11 86       	std	Z+9, r1	; 0x09
			Drive_ornament.how_loops=20;
    25fe:	84 e1       	ldi	r24, 0x14	; 20
    2600:	82 87       	std	Z+10, r24	; 0x0a
			}
			
			if(Drive_ornament.past_exec!=Drive_ornament.execute_mov)
    2602:	a6 ed       	ldi	r26, 0xD6	; 214
    2604:	b0 e0       	ldi	r27, 0x00	; 0
    2606:	15 96       	adiw	r26, 0x05	; 5
    2608:	ec 91       	ld	r30, X
    260a:	15 97       	sbiw	r26, 0x05	; 5
    260c:	16 96       	adiw	r26, 0x06	; 6
    260e:	8c 91       	ld	r24, X
    2610:	8e 17       	cp	r24, r30
    2612:	09 f4       	brne	.+2      	; 0x2616 <PLAYS+0x248>
    2614:	f2 c0       	rjmp	.+484    	; 0x27fa <PLAYS+0x42c>
			{
				
				switch (Drive_ornament.execute_mov)
    2616:	8e 2f       	mov	r24, r30
    2618:	90 e0       	ldi	r25, 0x00	; 0
    261a:	80 31       	cpi	r24, 0x10	; 16
    261c:	91 05       	cpc	r25, r1
    261e:	08 f0       	brcs	.+2      	; 0x2622 <PLAYS+0x254>
    2620:	ec c0       	rjmp	.+472    	; 0x27fa <PLAYS+0x42c>
    2622:	fc 01       	movw	r30, r24
    2624:	ec 59       	subi	r30, 0x9C	; 156
    2626:	ff 4f       	sbci	r31, 0xFF	; 255
    2628:	0c 94 f1 14 	jmp	0x29e2	; 0x29e2 <__tablejump2__>
				{
					
					case 0:
					PILOTE_SPI.OUT_BARRIDO[4]&=0xFFFF0000;
					PILOTE_SPI.OUT_BARRIDO[4]|= 0x80;
    262c:	e0 e8       	ldi	r30, 0x80	; 128
    262e:	f0 e0       	ldi	r31, 0x00	; 0
    2630:	81 89       	ldd	r24, Z+17	; 0x11
    2632:	92 89       	ldd	r25, Z+18	; 0x12
    2634:	a3 89       	ldd	r26, Z+19	; 0x13
    2636:	b4 89       	ldd	r27, Z+20	; 0x14
    2638:	88 27       	eor	r24, r24
    263a:	99 27       	eor	r25, r25
    263c:	80 68       	ori	r24, 0x80	; 128
    263e:	81 8b       	std	Z+17, r24	; 0x11
    2640:	92 8b       	std	Z+18, r25	; 0x12
    2642:	a3 8b       	std	Z+19, r26	; 0x13
    2644:	b4 8b       	std	Z+20, r27	; 0x14
					
					break;
    2646:	08 95       	ret
					
					case 1:
					PILOTE_SPI.OUT_BARRIDO[4]&=0xFFFF0000;
					PILOTE_SPI.OUT_BARRIDO[4]|= 0x4;
    2648:	e0 e8       	ldi	r30, 0x80	; 128
    264a:	f0 e0       	ldi	r31, 0x00	; 0
    264c:	81 89       	ldd	r24, Z+17	; 0x11
    264e:	92 89       	ldd	r25, Z+18	; 0x12
    2650:	a3 89       	ldd	r26, Z+19	; 0x13
    2652:	b4 89       	ldd	r27, Z+20	; 0x14
    2654:	88 27       	eor	r24, r24
    2656:	99 27       	eor	r25, r25
    2658:	84 60       	ori	r24, 0x04	; 4
    265a:	81 8b       	std	Z+17, r24	; 0x11
    265c:	92 8b       	std	Z+18, r25	; 0x12
    265e:	a3 8b       	std	Z+19, r26	; 0x13
    2660:	b4 8b       	std	Z+20, r27	; 0x14
					break;
    2662:	08 95       	ret
					
					case 2:
					PILOTE_SPI.OUT_BARRIDO[4]&=0xFFFF0000;
					PILOTE_SPI.OUT_BARRIDO[4]|= 0x20;
    2664:	e0 e8       	ldi	r30, 0x80	; 128
    2666:	f0 e0       	ldi	r31, 0x00	; 0
    2668:	81 89       	ldd	r24, Z+17	; 0x11
    266a:	92 89       	ldd	r25, Z+18	; 0x12
    266c:	a3 89       	ldd	r26, Z+19	; 0x13
    266e:	b4 89       	ldd	r27, Z+20	; 0x14
    2670:	88 27       	eor	r24, r24
    2672:	99 27       	eor	r25, r25
    2674:	80 62       	ori	r24, 0x20	; 32
    2676:	81 8b       	std	Z+17, r24	; 0x11
    2678:	92 8b       	std	Z+18, r25	; 0x12
    267a:	a3 8b       	std	Z+19, r26	; 0x13
    267c:	b4 8b       	std	Z+20, r27	; 0x14
					
					break;
    267e:	08 95       	ret
					
					case 3:
					
					PILOTE_SPI.OUT_BARRIDO[4]&=0xFFFF0000;
					PILOTE_SPI.OUT_BARRIDO[4]|= 0x1;
    2680:	e0 e8       	ldi	r30, 0x80	; 128
    2682:	f0 e0       	ldi	r31, 0x00	; 0
    2684:	81 89       	ldd	r24, Z+17	; 0x11
    2686:	92 89       	ldd	r25, Z+18	; 0x12
    2688:	a3 89       	ldd	r26, Z+19	; 0x13
    268a:	b4 89       	ldd	r27, Z+20	; 0x14
    268c:	88 27       	eor	r24, r24
    268e:	99 27       	eor	r25, r25
    2690:	81 60       	ori	r24, 0x01	; 1
    2692:	81 8b       	std	Z+17, r24	; 0x11
    2694:	92 8b       	std	Z+18, r25	; 0x12
    2696:	a3 8b       	std	Z+19, r26	; 0x13
    2698:	b4 8b       	std	Z+20, r27	; 0x14
					
					
					break;
    269a:	08 95       	ret
					
					case 4:
					
					PILOTE_SPI.OUT_BARRIDO[4]&= 0xFFFF0000;
					PILOTE_SPI.OUT_BARRIDO[4]|= 0x8000;
    269c:	e0 e8       	ldi	r30, 0x80	; 128
    269e:	f0 e0       	ldi	r31, 0x00	; 0
    26a0:	81 89       	ldd	r24, Z+17	; 0x11
    26a2:	92 89       	ldd	r25, Z+18	; 0x12
    26a4:	a3 89       	ldd	r26, Z+19	; 0x13
    26a6:	b4 89       	ldd	r27, Z+20	; 0x14
    26a8:	88 27       	eor	r24, r24
    26aa:	99 27       	eor	r25, r25
    26ac:	90 68       	ori	r25, 0x80	; 128
    26ae:	81 8b       	std	Z+17, r24	; 0x11
    26b0:	92 8b       	std	Z+18, r25	; 0x12
    26b2:	a3 8b       	std	Z+19, r26	; 0x13
    26b4:	b4 8b       	std	Z+20, r27	; 0x14
					
					break;
    26b6:	08 95       	ret
					
					case 5:
					PILOTE_SPI.OUT_BARRIDO[4]&=0xFFFF0000;
					PILOTE_SPI.OUT_BARRIDO[4]|= 0x400;
    26b8:	e0 e8       	ldi	r30, 0x80	; 128
    26ba:	f0 e0       	ldi	r31, 0x00	; 0
    26bc:	81 89       	ldd	r24, Z+17	; 0x11
    26be:	92 89       	ldd	r25, Z+18	; 0x12
    26c0:	a3 89       	ldd	r26, Z+19	; 0x13
    26c2:	b4 89       	ldd	r27, Z+20	; 0x14
    26c4:	88 27       	eor	r24, r24
    26c6:	99 27       	eor	r25, r25
    26c8:	94 60       	ori	r25, 0x04	; 4
    26ca:	81 8b       	std	Z+17, r24	; 0x11
    26cc:	92 8b       	std	Z+18, r25	; 0x12
    26ce:	a3 8b       	std	Z+19, r26	; 0x13
    26d0:	b4 8b       	std	Z+20, r27	; 0x14
					
					break;
    26d2:	08 95       	ret
					
					case 6:
					PILOTE_SPI.OUT_BARRIDO[4]&=0xFFFF0000;
					PILOTE_SPI.OUT_BARRIDO[4]|= 0x2000;
    26d4:	e0 e8       	ldi	r30, 0x80	; 128
    26d6:	f0 e0       	ldi	r31, 0x00	; 0
    26d8:	81 89       	ldd	r24, Z+17	; 0x11
    26da:	92 89       	ldd	r25, Z+18	; 0x12
    26dc:	a3 89       	ldd	r26, Z+19	; 0x13
    26de:	b4 89       	ldd	r27, Z+20	; 0x14
    26e0:	88 27       	eor	r24, r24
    26e2:	99 27       	eor	r25, r25
    26e4:	90 62       	ori	r25, 0x20	; 32
    26e6:	81 8b       	std	Z+17, r24	; 0x11
    26e8:	92 8b       	std	Z+18, r25	; 0x12
    26ea:	a3 8b       	std	Z+19, r26	; 0x13
    26ec:	b4 8b       	std	Z+20, r27	; 0x14
					break;
    26ee:	08 95       	ret
					
					case 7:
					PILOTE_SPI.OUT_BARRIDO[4]&=0xFFFF0000;
					PILOTE_SPI.OUT_BARRIDO[4]|= 0x100;
    26f0:	e0 e8       	ldi	r30, 0x80	; 128
    26f2:	f0 e0       	ldi	r31, 0x00	; 0
    26f4:	81 89       	ldd	r24, Z+17	; 0x11
    26f6:	92 89       	ldd	r25, Z+18	; 0x12
    26f8:	a3 89       	ldd	r26, Z+19	; 0x13
    26fa:	b4 89       	ldd	r27, Z+20	; 0x14
    26fc:	88 27       	eor	r24, r24
    26fe:	99 27       	eor	r25, r25
    2700:	91 60       	ori	r25, 0x01	; 1
    2702:	81 8b       	std	Z+17, r24	; 0x11
    2704:	92 8b       	std	Z+18, r25	; 0x12
    2706:	a3 8b       	std	Z+19, r26	; 0x13
    2708:	b4 8b       	std	Z+20, r27	; 0x14
					break;
    270a:	08 95       	ret
					
					case 8:
					PILOTE_SPI.OUT_BARRIDO[4]&=0xFFFF0000;
					PILOTE_SPI.OUT_BARRIDO[4]|= 0x8;
    270c:	e0 e8       	ldi	r30, 0x80	; 128
    270e:	f0 e0       	ldi	r31, 0x00	; 0
    2710:	81 89       	ldd	r24, Z+17	; 0x11
    2712:	92 89       	ldd	r25, Z+18	; 0x12
    2714:	a3 89       	ldd	r26, Z+19	; 0x13
    2716:	b4 89       	ldd	r27, Z+20	; 0x14
    2718:	88 27       	eor	r24, r24
    271a:	99 27       	eor	r25, r25
    271c:	88 60       	ori	r24, 0x08	; 8
    271e:	81 8b       	std	Z+17, r24	; 0x11
    2720:	92 8b       	std	Z+18, r25	; 0x12
    2722:	a3 8b       	std	Z+19, r26	; 0x13
    2724:	b4 8b       	std	Z+20, r27	; 0x14
					break;
    2726:	08 95       	ret
					
					case 9:
					PILOTE_SPI.OUT_BARRIDO[4]&=0xFFFF0000;
					PILOTE_SPI.OUT_BARRIDO[4]|= 0x40;
    2728:	e0 e8       	ldi	r30, 0x80	; 128
    272a:	f0 e0       	ldi	r31, 0x00	; 0
    272c:	81 89       	ldd	r24, Z+17	; 0x11
    272e:	92 89       	ldd	r25, Z+18	; 0x12
    2730:	a3 89       	ldd	r26, Z+19	; 0x13
    2732:	b4 89       	ldd	r27, Z+20	; 0x14
    2734:	88 27       	eor	r24, r24
    2736:	99 27       	eor	r25, r25
    2738:	80 64       	ori	r24, 0x40	; 64
    273a:	81 8b       	std	Z+17, r24	; 0x11
    273c:	92 8b       	std	Z+18, r25	; 0x12
    273e:	a3 8b       	std	Z+19, r26	; 0x13
    2740:	b4 8b       	std	Z+20, r27	; 0x14
					break;
    2742:	08 95       	ret
					
					case 10:
					PILOTE_SPI.OUT_BARRIDO[4]&=0xFFFF0000;
					PILOTE_SPI.OUT_BARRIDO[4]|= 0x2;
    2744:	e0 e8       	ldi	r30, 0x80	; 128
    2746:	f0 e0       	ldi	r31, 0x00	; 0
    2748:	81 89       	ldd	r24, Z+17	; 0x11
    274a:	92 89       	ldd	r25, Z+18	; 0x12
    274c:	a3 89       	ldd	r26, Z+19	; 0x13
    274e:	b4 89       	ldd	r27, Z+20	; 0x14
    2750:	88 27       	eor	r24, r24
    2752:	99 27       	eor	r25, r25
    2754:	82 60       	ori	r24, 0x02	; 2
    2756:	81 8b       	std	Z+17, r24	; 0x11
    2758:	92 8b       	std	Z+18, r25	; 0x12
    275a:	a3 8b       	std	Z+19, r26	; 0x13
    275c:	b4 8b       	std	Z+20, r27	; 0x14
					break;
    275e:	08 95       	ret
					
					case 11:
					PILOTE_SPI.OUT_BARRIDO[4]&=0xFFFF0000;
					PILOTE_SPI.OUT_BARRIDO[4]|= 0x10;
    2760:	e0 e8       	ldi	r30, 0x80	; 128
    2762:	f0 e0       	ldi	r31, 0x00	; 0
    2764:	81 89       	ldd	r24, Z+17	; 0x11
    2766:	92 89       	ldd	r25, Z+18	; 0x12
    2768:	a3 89       	ldd	r26, Z+19	; 0x13
    276a:	b4 89       	ldd	r27, Z+20	; 0x14
    276c:	88 27       	eor	r24, r24
    276e:	99 27       	eor	r25, r25
    2770:	80 61       	ori	r24, 0x10	; 16
    2772:	81 8b       	std	Z+17, r24	; 0x11
    2774:	92 8b       	std	Z+18, r25	; 0x12
    2776:	a3 8b       	std	Z+19, r26	; 0x13
    2778:	b4 8b       	std	Z+20, r27	; 0x14
					break;
    277a:	08 95       	ret
					
					case 12:
					PILOTE_SPI.OUT_BARRIDO[4]&=0xFFFF0000;
					PILOTE_SPI.OUT_BARRIDO[4]|= 0x800;
    277c:	e0 e8       	ldi	r30, 0x80	; 128
    277e:	f0 e0       	ldi	r31, 0x00	; 0
    2780:	81 89       	ldd	r24, Z+17	; 0x11
    2782:	92 89       	ldd	r25, Z+18	; 0x12
    2784:	a3 89       	ldd	r26, Z+19	; 0x13
    2786:	b4 89       	ldd	r27, Z+20	; 0x14
    2788:	88 27       	eor	r24, r24
    278a:	99 27       	eor	r25, r25
    278c:	98 60       	ori	r25, 0x08	; 8
    278e:	81 8b       	std	Z+17, r24	; 0x11
    2790:	92 8b       	std	Z+18, r25	; 0x12
    2792:	a3 8b       	std	Z+19, r26	; 0x13
    2794:	b4 8b       	std	Z+20, r27	; 0x14
					break;
    2796:	08 95       	ret
					
					case 13:
					PILOTE_SPI.OUT_BARRIDO[4]&=0xFFFF0000;
					PILOTE_SPI.OUT_BARRIDO[4]|= 0x4000;
    2798:	e0 e8       	ldi	r30, 0x80	; 128
    279a:	f0 e0       	ldi	r31, 0x00	; 0
    279c:	81 89       	ldd	r24, Z+17	; 0x11
    279e:	92 89       	ldd	r25, Z+18	; 0x12
    27a0:	a3 89       	ldd	r26, Z+19	; 0x13
    27a2:	b4 89       	ldd	r27, Z+20	; 0x14
    27a4:	88 27       	eor	r24, r24
    27a6:	99 27       	eor	r25, r25
    27a8:	90 64       	ori	r25, 0x40	; 64
    27aa:	81 8b       	std	Z+17, r24	; 0x11
    27ac:	92 8b       	std	Z+18, r25	; 0x12
    27ae:	a3 8b       	std	Z+19, r26	; 0x13
    27b0:	b4 8b       	std	Z+20, r27	; 0x14
					break;
    27b2:	08 95       	ret
					
					case 14:
					PILOTE_SPI.OUT_BARRIDO[4]&=0xFFFF0000;
					PILOTE_SPI.OUT_BARRIDO[4]|= 0x200;
    27b4:	e0 e8       	ldi	r30, 0x80	; 128
    27b6:	f0 e0       	ldi	r31, 0x00	; 0
    27b8:	81 89       	ldd	r24, Z+17	; 0x11
    27ba:	92 89       	ldd	r25, Z+18	; 0x12
    27bc:	a3 89       	ldd	r26, Z+19	; 0x13
    27be:	b4 89       	ldd	r27, Z+20	; 0x14
    27c0:	88 27       	eor	r24, r24
    27c2:	99 27       	eor	r25, r25
    27c4:	92 60       	ori	r25, 0x02	; 2
    27c6:	81 8b       	std	Z+17, r24	; 0x11
    27c8:	92 8b       	std	Z+18, r25	; 0x12
    27ca:	a3 8b       	std	Z+19, r26	; 0x13
    27cc:	b4 8b       	std	Z+20, r27	; 0x14
					break;
    27ce:	08 95       	ret
					
					case 15:
					PILOTE_SPI.OUT_BARRIDO[4]&=0xFFFF0000;
					PILOTE_SPI.OUT_BARRIDO[4]|= 0x1000;
    27d0:	e0 e8       	ldi	r30, 0x80	; 128
    27d2:	f0 e0       	ldi	r31, 0x00	; 0
    27d4:	81 89       	ldd	r24, Z+17	; 0x11
    27d6:	92 89       	ldd	r25, Z+18	; 0x12
    27d8:	a3 89       	ldd	r26, Z+19	; 0x13
    27da:	b4 89       	ldd	r27, Z+20	; 0x14
    27dc:	88 27       	eor	r24, r24
    27de:	99 27       	eor	r25, r25
    27e0:	90 61       	ori	r25, 0x10	; 16
    27e2:	81 8b       	std	Z+17, r24	; 0x11
    27e4:	92 8b       	std	Z+18, r25	; 0x12
    27e6:	a3 8b       	std	Z+19, r26	; 0x13
    27e8:	b4 8b       	std	Z+20, r27	; 0x14
					Drive_ornament.execute_mov=255;
    27ea:	e6 ed       	ldi	r30, 0xD6	; 214
    27ec:	f0 e0       	ldi	r31, 0x00	; 0
    27ee:	8f ef       	ldi	r24, 0xFF	; 255
    27f0:	85 83       	std	Z+5, r24	; 0x05
					
					Drive_ornament.past_exec=Drive_ornament.execute_mov;
    27f2:	86 83       	std	Z+6, r24	; 0x06
					Drive_ornament.i++;
    27f4:	80 85       	ldd	r24, Z+8	; 0x08
    27f6:	8f 5f       	subi	r24, 0xFF	; 255
    27f8:	80 87       	std	Z+8, r24	; 0x08
    27fa:	08 95       	ret

000027fc <DS1307_get>:
	I2C_Stop();
	 	
}

unsigned char DS1307_get(unsigned char addr)
{
    27fc:	cf 93       	push	r28
    27fe:	c8 2f       	mov	r28, r24
	unsigned char ret;	
	
 	I2C_Start(); //avisa al bus
    2800:	0e 94 cb 0e 	call	0x1d96	; 0x1d96 <I2C_Start>
	I2C_Write(DS1307_write);// dirije al chip
    2804:	80 ed       	ldi	r24, 0xD0	; 208
    2806:	90 e0       	ldi	r25, 0x00	; 0
    2808:	0e 94 d4 0e 	call	0x1da8	; 0x1da8 <I2C_Write>
	I2C_Write(addr);        // le dice que direccion queremos leer	
    280c:	8c 2f       	mov	r24, r28
    280e:	90 e0       	ldi	r25, 0x00	; 0
    2810:	0e 94 d4 0e 	call	0x1da8	; 0x1da8 <I2C_Write>
	
	I2C_Start(); //le dice que vamos a leer
    2814:	0e 94 cb 0e 	call	0x1d96	; 0x1d96 <I2C_Start>
    I2C_Write(DS1307_read);	
    2818:	81 ed       	ldi	r24, 0xD1	; 209
    281a:	90 e0       	ldi	r25, 0x00	; 0
    281c:	0e 94 d4 0e 	call	0x1da8	; 0x1da8 <I2C_Write>
	ret = I2C_Read(0);		      
    2820:	80 e0       	ldi	r24, 0x00	; 0
    2822:	0e 94 b5 0e 	call	0x1d6a	; 0x1d6a <I2C_Read>
    2826:	c8 2f       	mov	r28, r24
	I2C_Stop();                     //libera i2c
    2828:	0e 94 a4 0e 	call	0x1d48	; 0x1d48 <I2C_Stop>
	return ret;
	
}
    282c:	8c 2f       	mov	r24, r28
    282e:	cf 91       	pop	r28
    2830:	08 95       	ret

00002832 <DS1307_settime>:


void DS1307_settime(unsigned char hh,unsigned char mm,unsigned char ss)
{
    2832:	1f 93       	push	r17
    2834:	cf 93       	push	r28
    2836:	df 93       	push	r29
    2838:	c8 2f       	mov	r28, r24
    283a:	d6 2f       	mov	r29, r22
    283c:	14 2f       	mov	r17, r20
	
	I2C_Start(); //avisa a ds1307
    283e:	0e 94 cb 0e 	call	0x1d96	; 0x1d96 <I2C_Start>
	I2C_Write(DS1307_write);         //inicia desde segundos
    2842:	80 ed       	ldi	r24, 0xD0	; 208
    2844:	90 e0       	ldi	r25, 0x00	; 0
    2846:	0e 94 d4 0e 	call	0x1da8	; 0x1da8 <I2C_Write>
	I2C_Write(SEC);
    284a:	80 e0       	ldi	r24, 0x00	; 0
    284c:	90 e0       	ldi	r25, 0x00	; 0
    284e:	0e 94 d4 0e 	call	0x1da8	; 0x1da8 <I2C_Write>
	
	I2C_Write(ss);
    2852:	81 2f       	mov	r24, r17
    2854:	90 e0       	ldi	r25, 0x00	; 0
    2856:	0e 94 d4 0e 	call	0x1da8	; 0x1da8 <I2C_Write>
	I2C_Write(mm);
    285a:	8d 2f       	mov	r24, r29
    285c:	90 e0       	ldi	r25, 0x00	; 0
    285e:	0e 94 d4 0e 	call	0x1da8	; 0x1da8 <I2C_Write>
	I2C_Write(hh);
    2862:	8c 2f       	mov	r24, r28
    2864:	90 e0       	ldi	r25, 0x00	; 0
    2866:	0e 94 d4 0e 	call	0x1da8	; 0x1da8 <I2C_Write>
	
	I2C_Stop();	
    286a:	0e 94 a4 0e 	call	0x1d48	; 0x1d48 <I2C_Stop>
	
}
    286e:	df 91       	pop	r29
    2870:	cf 91       	pop	r28
    2872:	1f 91       	pop	r17
    2874:	08 95       	ret

00002876 <DS1307_setdate>:

void DS1307_setdate(unsigned char dd, unsigned char mm, unsigned char yy)
{
    2876:	1f 93       	push	r17
    2878:	cf 93       	push	r28
    287a:	df 93       	push	r29
    287c:	18 2f       	mov	r17, r24
    287e:	d6 2f       	mov	r29, r22
    2880:	c4 2f       	mov	r28, r20
	I2C_Start();
    2882:	0e 94 cb 0e 	call	0x1d96	; 0x1d96 <I2C_Start>
	I2C_Write(DS1307_write); //avisa a ds1307
    2886:	80 ed       	ldi	r24, 0xD0	; 208
    2888:	90 e0       	ldi	r25, 0x00	; 0
    288a:	0e 94 d4 0e 	call	0x1da8	; 0x1da8 <I2C_Write>
	I2C_Write(DATE);         //inicia desde fecha
    288e:	84 e0       	ldi	r24, 0x04	; 4
    2890:	90 e0       	ldi	r25, 0x00	; 0
    2892:	0e 94 d4 0e 	call	0x1da8	; 0x1da8 <I2C_Write>
	
	I2C_Write(dd);
    2896:	81 2f       	mov	r24, r17
    2898:	90 e0       	ldi	r25, 0x00	; 0
    289a:	0e 94 d4 0e 	call	0x1da8	; 0x1da8 <I2C_Write>
	I2C_Write(mm);
    289e:	8d 2f       	mov	r24, r29
    28a0:	90 e0       	ldi	r25, 0x00	; 0
    28a2:	0e 94 d4 0e 	call	0x1da8	; 0x1da8 <I2C_Write>
	I2C_Write(yy);
    28a6:	8c 2f       	mov	r24, r28
    28a8:	90 e0       	ldi	r25, 0x00	; 0
    28aa:	0e 94 d4 0e 	call	0x1da8	; 0x1da8 <I2C_Write>
	
	I2C_Stop();
    28ae:	0e 94 a4 0e 	call	0x1d48	; 0x1d48 <I2C_Stop>
    28b2:	df 91       	pop	r29
    28b4:	cf 91       	pop	r28
    28b6:	1f 91       	pop	r17
    28b8:	08 95       	ret

000028ba <Execute_audio>:
}

void Execute_audio(uint8_t rola)
{
	/*envia audio **********/
	Drive_WT58.on_timer=TRUE;
    28ba:	e8 ec       	ldi	r30, 0xC8	; 200
    28bc:	f0 e0       	ldi	r31, 0x00	; 0
    28be:	91 e0       	ldi	r25, 0x01	; 1
    28c0:	95 83       	std	Z+5, r25	; 0x05
	Drive_WT58.send_audio=TRUE;
    28c2:	94 83       	std	Z+4, r25	; 0x04
	Drive_WT58.rola=rola;
    28c4:	80 83       	st	Z, r24
	Drive_WT58.suma_ms=TRUE;
    28c6:	97 83       	std	Z+7, r25	; 0x07
	TCNT2 = 0;
    28c8:	14 bc       	out	0x24, r1	; 36
    28ca:	08 95       	ret

000028cc <on_audio>:
#include "delay.h"


void on_audio(uint8_t rola)
{
	if(On_Off_Options.sounds==TRUE)
    28cc:	90 91 b2 00 	lds	r25, 0x00B2	; 0x8000b2 <On_Off_Options+0x1>
    28d0:	91 30       	cpi	r25, 0x01	; 1
    28d2:	11 f4       	brne	.+4      	; 0x28d8 <on_audio+0xc>
	{
	Execute_audio(rola);	
    28d4:	0e 94 5d 14 	call	0x28ba	; 0x28ba <Execute_audio>
    28d8:	08 95       	ret

000028da <on_audio_alrm>:
}


void on_audio_alrm(uint8_t rola)
{	
		if(On_Off_Options.alarm==TRUE)
    28da:	90 91 b1 00 	lds	r25, 0x00B1	; 0x8000b1 <On_Off_Options>
    28de:	91 30       	cpi	r25, 0x01	; 1
    28e0:	11 f4       	brne	.+4      	; 0x28e6 <on_audio_alrm+0xc>
		{
			Execute_audio(rola);
    28e2:	0e 94 5d 14 	call	0x28ba	; 0x28ba <Execute_audio>
    28e6:	08 95       	ret

000028e8 <play_song_secuence>:
	
}

 
void play_song_secuence(void)
{
    28e8:	cf 93       	push	r28
    28ea:	df 93       	push	r29
	
	
	if(Drive_WT58.on_timer==TRUE)
    28ec:	80 91 cd 00 	lds	r24, 0x00CD	; 0x8000cd <Drive_WT58+0x5>
    28f0:	81 30       	cpi	r24, 0x01	; 1
    28f2:	09 f0       	breq	.+2      	; 0x28f6 <play_song_secuence+0xe>
    28f4:	67 c0       	rjmp	.+206    	; 0x29c4 <play_song_secuence+0xdc>
	{
		Drive_WT58.rota_rola=Drive_WT58.rola;
    28f6:	e8 ec       	ldi	r30, 0xC8	; 200
    28f8:	f0 e0       	ldi	r31, 0x00	; 0
    28fa:	80 81       	ld	r24, Z
    28fc:	81 83       	std	Z+1, r24	; 0x01
		//TIMSK|= 0b10000000;
		Drive_WT58.on_timer=FALSE;	
    28fe:	15 82       	std	Z+5, r1	; 0x05
		Drive_WT58.contador_ms=0;
    2900:	16 82       	std	Z+6, r1	; 0x06
		Drive_WT58.contador_us=0;	
    2902:	10 86       	std	Z+8, r1	; 0x08
		TCNT2=0;
    2904:	14 bc       	out	0x24, r1	; 36
	}
	
	switch( Drive_WT58.protocol_part)
    2906:	82 85       	ldd	r24, Z+10	; 0x0a
    2908:	81 30       	cpi	r24, 0x01	; 1
    290a:	b1 f0       	breq	.+44     	; 0x2938 <play_song_secuence+0x50>
    290c:	28 f0       	brcs	.+10     	; 0x2918 <play_song_secuence+0x30>
    290e:	82 30       	cpi	r24, 0x02	; 2
    2910:	09 f1       	breq	.+66     	; 0x2954 <play_song_secuence+0x6c>
    2912:	83 30       	cpi	r24, 0x03	; 3
    2914:	69 f1       	breq	.+90     	; 0x2970 <play_song_secuence+0x88>
    2916:	62 c0       	rjmp	.+196    	; 0x29dc <play_song_secuence+0xf4>
	{
		
		case 0:
		
		if (Drive_WT58.contador_ms<9)  //   DELAY_ms(100); 7
    2918:	80 91 ce 00 	lds	r24, 0x00CE	; 0x8000ce <Drive_WT58+0x6>
    291c:	89 30       	cpi	r24, 0x09	; 9
    291e:	10 f4       	brcc	.+4      	; 0x2924 <play_song_secuence+0x3c>
		{
			
			PORT_DRV_WT588_RST &= (~(RST_WT588)); // (0<<RST_WT588);
    2920:	d8 98       	cbi	0x1b, 0	; 27
    2922:	5c c0       	rjmp	.+184    	; 0x29dc <play_song_secuence+0xf4>
			
		}
		else
		{
			PORT_DRV_WT588_RST |= RST_WT588;
    2924:	d8 9a       	sbi	0x1b, 0	; 27
			Drive_WT58.protocol_part++;
    2926:	e8 ec       	ldi	r30, 0xC8	; 200
    2928:	f0 e0       	ldi	r31, 0x00	; 0
    292a:	82 85       	ldd	r24, Z+10	; 0x0a
    292c:	8f 5f       	subi	r24, 0xFF	; 255
    292e:	82 87       	std	Z+10, r24	; 0x0a
			Drive_WT58.contador_ms=0;
    2930:	16 82       	std	Z+6, r1	; 0x06
			Drive_WT58.contador_us=0;
    2932:	10 86       	std	Z+8, r1	; 0x08
			PORT_DRV_WT588_ALLNO_RST |= CS_WT588;
    2934:	ad 9a       	sbi	0x15, 5	; 21
    2936:	52 c0       	rjmp	.+164    	; 0x29dc <play_song_secuence+0xf4>
		
		break;
		
		case 1:
		
			if (Drive_WT58.contador_ms>20)
    2938:	80 91 ce 00 	lds	r24, 0x00CE	; 0x8000ce <Drive_WT58+0x6>
    293c:	85 31       	cpi	r24, 0x15	; 21
    293e:	08 f4       	brcc	.+2      	; 0x2942 <play_song_secuence+0x5a>
    2940:	4d c0       	rjmp	.+154    	; 0x29dc <play_song_secuence+0xf4>
			{
				PORT_DRV_WT588_ALLNO_RST &= (~(CS_WT588));
    2942:	ad 98       	cbi	0x15, 5	; 21
				
			//	PORT_DRV_WT588_ALLNO_RST |= CLOCK_WT588;
				
				Drive_WT58.protocol_part++;
    2944:	e8 ec       	ldi	r30, 0xC8	; 200
    2946:	f0 e0       	ldi	r31, 0x00	; 0
    2948:	82 85       	ldd	r24, Z+10	; 0x0a
    294a:	8f 5f       	subi	r24, 0xFF	; 255
    294c:	82 87       	std	Z+10, r24	; 0x0a
				Drive_WT58.contador_ms=0;
    294e:	16 82       	std	Z+6, r1	; 0x06
				Drive_WT58.contador_us=0;
    2950:	10 86       	std	Z+8, r1	; 0x08
    2952:	44 c0       	rjmp	.+136    	; 0x29dc <play_song_secuence+0xf4>
		
		break;
		
		case 2:
			
		if (Drive_WT58.contador_ms>10)
    2954:	80 91 ce 00 	lds	r24, 0x00CE	; 0x8000ce <Drive_WT58+0x6>
    2958:	8b 30       	cpi	r24, 0x0B	; 11
    295a:	08 f4       	brcc	.+2      	; 0x295e <play_song_secuence+0x76>
    295c:	3f c0       	rjmp	.+126    	; 0x29dc <play_song_secuence+0xf4>
		{
			Drive_WT58.protocol_part++;
    295e:	e8 ec       	ldi	r30, 0xC8	; 200
    2960:	f0 e0       	ldi	r31, 0x00	; 0
    2962:	83 e0       	ldi	r24, 0x03	; 3
    2964:	82 87       	std	Z+10, r24	; 0x0a
			Drive_WT58.contador_ms=0;
    2966:	16 82       	std	Z+6, r1	; 0x06
			Drive_WT58.contador_us=0;
    2968:	10 86       	std	Z+8, r1	; 0x08
			Drive_WT58.time_off_secuence=FALSE;
    296a:	11 86       	std	Z+9, r1	; 0x09
			//Drive_WT58.i=0;
			PORT_DRV_WT588_ALLNO_RST &= (~( CLOCK_WT588));
    296c:	ae 98       	cbi	0x15, 6	; 21
    296e:	36 c0       	rjmp	.+108    	; 0x29dc <play_song_secuence+0xf4>
		case 3:

//*************************************************************//
/***************************************************************/	
//** saca Datos esto no pude programarlo con interrupciones********///
	for(Drive_WT58.i=0;Drive_WT58.i<8;Drive_WT58.i++)
    2970:	10 92 cb 00 	sts	0x00CB, r1	; 0x8000cb <Drive_WT58+0x3>
	{
		PORT_DRV_WT588_ALLNO_RST &= (~( CLOCK_WT588));
		Drive_WT58.comp_rola = Drive_WT58.rota_rola & 0b00000001;
    2974:	c8 ec       	ldi	r28, 0xC8	; 200
    2976:	d0 e0       	ldi	r29, 0x00	; 0
//*************************************************************//
/***************************************************************/	
//** saca Datos esto no pude programarlo con interrupciones********///
	for(Drive_WT58.i=0;Drive_WT58.i<8;Drive_WT58.i++)
	{
		PORT_DRV_WT588_ALLNO_RST &= (~( CLOCK_WT588));
    2978:	ae 98       	cbi	0x15, 6	; 21
		Drive_WT58.comp_rola = Drive_WT58.rota_rola & 0b00000001;
    297a:	89 81       	ldd	r24, Y+1	; 0x01
    297c:	81 70       	andi	r24, 0x01	; 1
    297e:	8a 83       	std	Y+2, r24	; 0x02
		
		switch (Drive_WT58.comp_rola)
    2980:	88 23       	and	r24, r24
    2982:	19 f0       	breq	.+6      	; 0x298a <play_song_secuence+0xa2>
    2984:	81 30       	cpi	r24, 0x01	; 1
    2986:	19 f0       	breq	.+6      	; 0x298e <play_song_secuence+0xa6>
    2988:	03 c0       	rjmp	.+6      	; 0x2990 <play_song_secuence+0xa8>
		{
			
			case 0:			
			PORT_DRV_WT588_ALLNO_RST &= (~(DAT_WT588));
    298a:	ac 98       	cbi	0x15, 4	; 21
			break;
    298c:	01 c0       	rjmp	.+2      	; 0x2990 <play_song_secuence+0xa8>
			
			case 1:
			PORT_DRV_WT588_ALLNO_RST |= DAT_WT588;
    298e:	ac 9a       	sbi	0x15, 4	; 21
			break;
		}
		
		Drive_WT58.rota_rola>>=1;
    2990:	89 81       	ldd	r24, Y+1	; 0x01
    2992:	86 95       	lsr	r24
    2994:	89 83       	std	Y+1, r24	; 0x01
		DELAY_us(15);
    2996:	8f e0       	ldi	r24, 0x0F	; 15
    2998:	90 e0       	ldi	r25, 0x00	; 0
    299a:	0e 94 97 0e 	call	0x1d2e	; 0x1d2e <DELAY_us>
		PORT_DRV_WT588_ALLNO_RST |= CLOCK_WT588;
    299e:	ae 9a       	sbi	0x15, 6	; 21
		DELAY_us(22);
    29a0:	86 e1       	ldi	r24, 0x16	; 22
    29a2:	90 e0       	ldi	r25, 0x00	; 0
    29a4:	0e 94 97 0e 	call	0x1d2e	; 0x1d2e <DELAY_us>
		case 3:

//*************************************************************//
/***************************************************************/	
//** saca Datos esto no pude programarlo con interrupciones********///
	for(Drive_WT58.i=0;Drive_WT58.i<8;Drive_WT58.i++)
    29a8:	8b 81       	ldd	r24, Y+3	; 0x03
    29aa:	8f 5f       	subi	r24, 0xFF	; 255
    29ac:	8b 83       	std	Y+3, r24	; 0x03
    29ae:	88 30       	cpi	r24, 0x08	; 8
    29b0:	18 f3       	brcs	.-58     	; 0x2978 <play_song_secuence+0x90>
		DELAY_us(15);
		PORT_DRV_WT588_ALLNO_RST |= CLOCK_WT588;
		DELAY_us(22);
		
	}
	PORT_DRV_WT588_ALLNO_RST |= CS_WT588;
    29b2:	ad 9a       	sbi	0x15, 5	; 21
	
	Drive_WT58.send_audio=FALSE;
    29b4:	e8 ec       	ldi	r30, 0xC8	; 200
    29b6:	f0 e0       	ldi	r31, 0x00	; 0
    29b8:	14 82       	std	Z+4, r1	; 0x04
	Drive_WT58.protocol_part=0;
    29ba:	12 86       	std	Z+10, r1	; 0x0a
		break;
	   }
	   
	   
		
	}
    29bc:	0f c0       	rjmp	.+30     	; 0x29dc <play_song_secuence+0xf4>
		case 3:

//*************************************************************//
/***************************************************************/	
//** saca Datos esto no pude programarlo con interrupciones********///
	for(Drive_WT58.i=0;Drive_WT58.i<8;Drive_WT58.i++)
    29be:	10 92 cb 00 	sts	0x00CB, r1	; 0x8000cb <Drive_WT58+0x3>
    29c2:	d8 cf       	rjmp	.-80     	; 0x2974 <play_song_secuence+0x8c>
		Drive_WT58.contador_ms=0;
		Drive_WT58.contador_us=0;	
		TCNT2=0;
	}
	
	switch( Drive_WT58.protocol_part)
    29c4:	80 91 d2 00 	lds	r24, 0x00D2	; 0x8000d2 <Drive_WT58+0xa>
    29c8:	81 30       	cpi	r24, 0x01	; 1
    29ca:	09 f4       	brne	.+2      	; 0x29ce <play_song_secuence+0xe6>
    29cc:	b5 cf       	rjmp	.-150    	; 0x2938 <play_song_secuence+0x50>
    29ce:	08 f4       	brcc	.+2      	; 0x29d2 <play_song_secuence+0xea>
    29d0:	a3 cf       	rjmp	.-186    	; 0x2918 <play_song_secuence+0x30>
    29d2:	82 30       	cpi	r24, 0x02	; 2
    29d4:	09 f4       	brne	.+2      	; 0x29d8 <play_song_secuence+0xf0>
    29d6:	be cf       	rjmp	.-132    	; 0x2954 <play_song_secuence+0x6c>
    29d8:	83 30       	cpi	r24, 0x03	; 3
    29da:	89 f3       	breq	.-30     	; 0x29be <play_song_secuence+0xd6>
		break;
	   }
	   
	   
		
	}
    29dc:	df 91       	pop	r29
    29de:	cf 91       	pop	r28
    29e0:	08 95       	ret

000029e2 <__tablejump2__>:
    29e2:	ee 0f       	add	r30, r30
    29e4:	ff 1f       	adc	r31, r31
    29e6:	05 90       	lpm	r0, Z+
    29e8:	f4 91       	lpm	r31, Z
    29ea:	e0 2d       	mov	r30, r0
    29ec:	09 94       	ijmp

000029ee <_exit>:
    29ee:	f8 94       	cli

000029f0 <__stop_program>:
    29f0:	ff cf       	rjmp	.-2      	; 0x29f0 <__stop_program>
